
Run_leds__2.elf:     file format elf32-littleriscv
Run_leds__2.elf
architecture: riscv:rv32, flags 0x00000112:
EXEC_P, HAS_SYMS, D_PAGED
start address 0x80000000

Program Header:
0x70000003 off    0x00040cdb vaddr 0x00000000 paddr 0x00000000 align 2**0
         filesz 0x00000041 memsz 0x00000000 flags r--
    LOAD off    0x00000000 vaddr 0x4003f000 paddr 0x4003f000 align 2**12
         filesz 0x000000f4 memsz 0x00001000 flags rw-
    LOAD off    0x00001000 vaddr 0x80000000 paddr 0x80000000 align 2**12
         filesz 0x00002218 memsz 0x00002218 flags r-x
    LOAD off    0x00004000 vaddr 0x40000000 paddr 0x80002218 align 2**12
         filesz 0x00000230 memsz 0x0000024c flags rw-
    LOAD off    0x0000024c vaddr 0x4000024c paddr 0x80002448 align 2**12
         filesz 0x00000000 memsz 0x00000078 flags rw-
   STACK off    0x00000000 vaddr 0x00000000 paddr 0x00000000 align 2**4
         filesz 0x00000000 memsz 0x00000000 flags rw-

Sections:
Idx Name              Size      VMA       LMA       File off  Algn  Flags
  0 .text.startup     00000108  80000000  80000000  00001000  2**1  CONTENTS, ALLOC, LOAD, READONLY, CODE
  1 .text.crt         00000184  80000140  80000140  00001140  2**6  CONTENTS, ALLOC, LOAD, READONLY, CODE
  2 .text             00001caa  800002c4  800002c4  000012c4  2**2  CONTENTS, ALLOC, LOAD, READONLY, CODE
  3 .tbss             00000000  80001f70  80001f70  00000000  2**2  ALLOC, THREAD_LOCAL
  4 .rodata           00000282  80001f70  80001f70  00002f70  2**2  CONTENTS, ALLOC, LOAD, READONLY, DATA
  5 .srodata          00000020  800021f8  800021f8  000031f8  2**3  CONTENTS, ALLOC, LOAD, READONLY, DATA
  6 .sdata            00000010  40000000  80002218  00004000  2**2  CONTENTS, ALLOC, LOAD, DATA
  7 .data             00000220  40000010  80002228  00004010  2**3  CONTENTS, ALLOC, LOAD, DATA
  8 .sbss             0000001c  40000230  80002448  00004230  2**2  ALLOC
  9 .bss              00000078  4000024c  80002448  0000424c  2**2  ALLOC
 10 .stack            00000800  4003f800  4003f800  00000800  2**0  ALLOC
 11 .debug_info       0000ce92  00000000  00000000  00004230  2**0  CONTENTS, READONLY, DEBUGGING, OCTETS
 12 .debug_abbrev     00000be4  00000000  00000000  000110c2  2**0  CONTENTS, READONLY, DEBUGGING, OCTETS
 13 .debug_loclists   00000814  00000000  00000000  00011ca6  2**0  CONTENTS, READONLY, DEBUGGING, OCTETS
 14 .debug_aranges    00000178  00000000  00000000  000124c0  2**3  CONTENTS, READONLY, DEBUGGING, OCTETS
 15 .debug_rnglists   0000011f  00000000  00000000  00012638  2**0  CONTENTS, READONLY, DEBUGGING, OCTETS
 16 .debug_line       00002756  00000000  00000000  00012757  2**0  CONTENTS, READONLY, DEBUGGING, OCTETS
 17 .debug_str        0002baaf  00000000  00000000  00014ead  2**0  CONTENTS, READONLY, DEBUGGING, OCTETS
 18 .debug_line_str   0000036d  00000000  00000000  0004095c  2**0  CONTENTS, READONLY, DEBUGGING, OCTETS
 19 .comment          00000012  00000000  00000000  00040cc9  2**0  CONTENTS, READONLY
 20 .riscv.attributes 00000041  00000000  00000000  00040cdb  2**0  CONTENTS, READONLY
 21 .debug_frame      00000438  00000000  00000000  00040d1c  2**2  CONTENTS, READONLY, DEBUGGING, OCTETS
 22 .debug_macro      00011398  00000000  00000000  00041154  2**0  CONTENTS, READONLY, DEBUGGING, OCTETS
SYMBOL TABLE:
80000000 l    d  .text.startup	00000000 .text.startup
80000140 l    d  .text.crt	00000000 .text.crt
800002c4 l    d  .text	00000000 .text
80001f70 l    d  .tbss	00000000 .tbss
80001f70 l    d  .rodata	00000000 .rodata
800021f8 l    d  .srodata	00000000 .srodata
40000000 l    d  .sdata	00000000 .sdata
40000010 l    d  .data	00000000 .data
40000230 l    d  .sbss	00000000 .sbss
4000024c l    d  .bss	00000000 .bss
4003f800 l    d  .stack	00000000 .stack
00000000 l    d  .debug_info	00000000 .debug_info
00000000 l    d  .debug_abbrev	00000000 .debug_abbrev
00000000 l    d  .debug_loclists	00000000 .debug_loclists
00000000 l    d  .debug_aranges	00000000 .debug_aranges
00000000 l    d  .debug_rnglists	00000000 .debug_rnglists
00000000 l    d  .debug_line	00000000 .debug_line
00000000 l    d  .debug_str	00000000 .debug_str
00000000 l    d  .debug_line_str	00000000 .debug_line_str
00000000 l    d  .comment	00000000 .comment
00000000 l    d  .riscv.attributes	00000000 .riscv.attributes
00000000 l    d  .debug_frame	00000000 .debug_frame
00000000 l    d  .debug_macro	00000000 .debug_macro
00000000 l    df *ABS*	00000000 startup_k1921vg015.o
800002c4 l     F .text	0000001a PLIC_SetIrqHandler
40000090 l     O .data	00000080 mach_plic_handler
40000010 l     O .data	00000080 supervisor_plic_handler
800002de l     F .text	0000000c PLIC_SetPriority
800002ea l     F .text	0000002a PLIC_IntEnable
80000314 l     F .text	00000012 PLIC_ClaimIrq
80000326 l     F .text	00000012 PLIC_ClaimComplete
80000338 l     F .text	00000012 PLIC_SetThreshold
8000034a l     F .text	0000002a PLIC_MachHandler
80000374 l     F .text	00000008 PutChar
8000037c l     F .text	00000018 PutString
80000394 l     F .text	00000082 PutUnsignedInt
80000416 l     F .text	000000d2 PutSignedInt
800004e8 l     F .text	0000008a PutHexa
80000572 l     F .text	00000166 vsnprintf
800006d8 l     F .text	00000014 vsprintf
800006ec l     F .text	000000dc SystemCoreClockUpdate
40000248 l     O .sbss	00000004 SystemPll0Clock
40000244 l     O .sbss	00000004 SystemPll1Clock
40000240 l     O .sbss	00000004 SystemCoreClock
800007c8 l     F .text	000000e6 ClkInit
800008ae l     F .text	00000026 InterruptEnable
800008d4 l     F .text	0000000c SystemInit
800008e0 l     F .text	0000006c BSP_led_init
8000094c l     F .text	00000178 adcsar_init
80000ac4 l     F .text	0000005a TMR32_init
80000fa6 l     F .text	00000128 TMR32_IRQHandler
80000b1e l     F .text	000000f8 TMR1_PWN_init
80000c16 l     F .text	00000098 UART1_init
80000cae l     F .text	00000076 update_leds
4000000c l     O .sdata	00000004 button_click_counter
4000023c l     O .sbss	00000004 led_shift
80000d24 l     F .text	0000006c retarget_init
80000d90 l     F .text	00000016 retarget_put_char
80000da6 l     F .text	0000000c PrintChar
80000db2 l     F .text	00000032 fputc
40000110 l     O .data	00000120 r
80000de4 l     F .text	00000036 fputs
80000e1a l     F .text	00000066 vfprintf
80000e80 l     F .text	00000016 vprintf
80000e96 l     F .text	00000032 Send_buff
80000ec8 l     F .text	0000001e printf
80000ee6 l     F .text	0000001e sprintf
80000f04 l     F .text	000000a2 periph_init
4000024c l     O .bss	00000078 buff
40000238 l     O .sbss	00000004 cnt_tgl_meows
40000004 l     O .sdata	00000004 Ysm.3
40000001 l     O .sdata	00000001 button_state.2
40000000 l     O .sdata	00000001 prev_button_state.1
40000230 l     O .sbss	00000004 last_led_update.0
40000008 l     O .sdata	00000004 flag_meows
40000234 l     O .sbss	00000004 meows_barks_counter
800000b0 l     F .text.startup	00000058 plf_init_generic
00000000 l    df *ABS*	00000000 libc_a-memset.o
00000000 l    df *ABS*	00000000 libc_a-memcpy.o
00000000 l    df *ABS*	00000000 divdf3.o
00000000 l    df *ABS*	00000000 fixdfsi.o
00000000 l    df *ABS*	00000000 floatunsidf.o
00000000 l    df *ABS*	00000000 _clzsi2.o
000011f5  w      .debug_info	00000000 .hidden printf.c.48218671
00000800 g       *ABS*	00000000 STACK_SIZE
40000780 g       *ABS*	00000000 __global_pointer$
40040000 g       .stack	00000000 __TLS0_BASE__
8000008c g       .text.startup	00000000 _hart_halt
40000000 g       .sdata	00000000 __SDATA_BEGIN__
80001252 g     F .text	000000ec memcpy
40000010 g       .sdata	00000000 __sdata_target_end
4003f800 g       *ABS*	00000000 _heap_end
400002c4 g       .bss	00000000 __bss_end
800000a0  w      .text.startup	00000000 abort
80001e90 g     F .text	00000070 .hidden __floatunsidf
40000230 g       .data	00000000 __data_target_end
80001daa g     F .text	000000e6 .hidden __fixdfsi
400002d0 g       *ABS*	00000000 _heap_start
800010ce g     F .text	00000018 trap_handler
80001f00 g     F .text	0000006e .hidden __clzsi2
80000000 g       *ABS*	00000000 __TEXT_INIT_START__
80000000 g       .text.startup	00000000 _start
80002218 g       *ABS*	00000000 __sdata_source_start
8000133e g     F .text	00000a6c .hidden __divdf3
00000e57  w      .debug_info	00000000 .hidden plic.c.21d8f78f
400002c4 g       .bss	00000000 __BSS_END__
00000108 g       *ABS*	00000000 __TEXT_INIT_SIZE__
800000a4  w      .text.startup	00000000 app_init
40000230 g       .sbss	00000000 __bss_start
800011aa g     F .text	000000a8 memset
800010e6 g     F .text	000000c4 main
80000140  w    F .text.crt	0000014c trap_entry
40000010 g       .data	00000000 __data_target_start
00004a4b  w      .debug_info	00000000 .hidden main.c.032fdd68
80002038 g     O .rodata	00000100 .hidden __clz_tab
40000000 g       .sdata	00000000 __sdata_target_start
800000b0 g     F .text.startup	00000058 plf_init
40000010 g       .data	00000000 __DATA_BEGIN__
00009e8c  w      .debug_info	00000000 .hidden retarget.c.918a4a7b
00001ec9  w      .debug_info	00000000 .hidden system_k1921vg015.c.08e00f8f
40000230 g       .data	00000000 _edata
8000009c  w      .text.startup	00000000 exit
80001f70 g       .text	00000000 _tdata_start
00001d6b  w      .debug_info	00000000 .hidden sys_init.c.d9db5e6f
80001f70 g       .tbss	00000000 _tbss_end
00000000 g       *ABS*	00000000 __TLS_SIZE__
80002228 g       *ABS*	00000000 __data_source_start
4003f800 g       .stack	00000000 __STACK_START__



Disassembly of section .text.startup:

80000000 <_start>:
_start():
D:\temp\K1921VG015\proj\Run_leds__2\Debug/../platform/source/startup_k1921vg015.S:22
    .section ".startup.entry","ax",@progbits

    ## Entry point
_start:
    ## reset mstatus
    csrw  mstatus, zero
80000000:	30001073          	csrw	mstatus,zero
D:\temp\K1921VG015\proj\Run_leds__2\Debug/../platform/source/startup_k1921vg015.S:24
    ## reset PMURTC->RTC_HISTORY
    lui     s1,0x38011
80000004:	380114b7          	lui	s1,0x38011
D:\temp\K1921VG015\proj\Run_leds__2\Debug/../platform/source/startup_k1921vg015.S:25
    sw      zero,8(s1) 
80000008:	0004a423          	sw	zero,8(s1) # 38011008 <retarget.c.918a4a7b+0x3800717c>
D:\temp\K1921VG015\proj\Run_leds__2\Debug/../platform/source/startup_k1921vg015.S:34
    init_regs_const 16, 31, 0
#endif // !__riscv_32e
#endif // PLF_INIT_REGS

    ## setup gp
    load_addrword_abs gp, __global_pointer$
8000000c:	400001b7          	lui	gp,0x40000
80000010:	78018193          	addi	gp,gp,1920 # 40000780 <__global_pointer$>
D:\temp\K1921VG015\proj\Run_leds__2\Debug/../platform/source/startup_k1921vg015.S:36
    ## setup MTVEC
    load_addrword_abs t0, trap_entry
80000014:	800002b7          	lui	t0,0x80000
80000018:	14028293          	addi	t0,t0,320 # 80000140 <trap_entry>
D:\temp\K1921VG015\proj\Run_leds__2\Debug/../platform/source/startup_k1921vg015.S:37
    csrw  mtvec, t0
8000001c:	30529073          	csrw	mtvec,t0
D:\temp\K1921VG015\proj\Run_leds__2\Debug/../platform/source/startup_k1921vg015.S:41
    ## setup MIE, MIP


    csrw  mie, zero
80000020:	30401073          	csrw	mie,zero
D:\temp\K1921VG015\proj\Run_leds__2\Debug/../platform/source/startup_k1921vg015.S:42
    csrw  mip, zero
80000024:	34401073          	csrw	mip,zero
D:\temp\K1921VG015\proj\Run_leds__2\Debug/../platform/source/startup_k1921vg015.S:52
    load_const_int32 t1, __TEXT_INIT_SIZE__
    cache_flush t0, t1
#endif // PLF_CACHE_CFG

    ## init FPU (if supported)
    csrr  a0, misa
80000028:	30102573          	csrr	a0,misa
D:\temp\K1921VG015\proj\Run_leds__2\Debug/../platform/source/startup_k1921vg015.S:53
    andi  a0, a0, (1 << ('F' - 'A')) | (1 << ('D' - 'A'))
8000002c:	02857513          	andi	a0,a0,40
D:\temp\K1921VG015\proj\Run_leds__2\Debug/../platform/source/startup_k1921vg015.S:54
    beqz  a0, 1f
80000030:	00050863          	beqz	a0,80000040 <_start+0x40>
D:\temp\K1921VG015\proj\Run_leds__2\Debug/../platform/source/startup_k1921vg015.S:55
    li    a0, (1 << 13) // mstatus.FS = 1 (initial)
80000034:	00002537          	lui	a0,0x2
D:\temp\K1921VG015\proj\Run_leds__2\Debug/../platform/source/startup_k1921vg015.S:56
    csrs  mstatus, a0
80000038:	30052073          	csrs	mstatus,a0
D:\temp\K1921VG015\proj\Run_leds__2\Debug/../platform/source/startup_k1921vg015.S:57
    csrw  fcsr, zero
8000003c:	00301073          	fscsr	zero
D:\temp\K1921VG015\proj\Run_leds__2\Debug/../platform/source/startup_k1921vg015.S:67
#else
#define slave_hart_start _hart_halt
#endif // PLF_SMP_SUPPORT

    ## park/prep SMP slaves
    csrr  a0, mhartid
80000040:	f1402573          	csrr	a0,mhartid
D:\temp\K1921VG015\proj\Run_leds__2\Debug/../platform/source/startup_k1921vg015.S:76
#if PLF_SMP_MASTER_HARTID > 0
    li    t0, PLF_SMP_MASTER_HARTID
    bne   a0, t0, slave_hart_start
#endif // PLF_SMP_MASTER_HARTID > 0
#else // PLF_SMP_MASTER_HARTID
    bnez  a0, slave_hart_start
80000044:	04051463          	bnez	a0,8000008c <_hart_halt>
D:\temp\K1921VG015\proj\Run_leds__2\Debug/../platform/source/startup_k1921vg015.S:80
#endif // PLF_SMP_MASTER_HARTID

    ## init HART#0 sp, tp
    load_addrword_abs sp, __TLS0_BASE__
80000048:	40040137          	lui	sp,0x40040
8000004c:	00010113          	mv	sp,sp
D:\temp\K1921VG015\proj\Run_leds__2\Debug/../platform/source/startup_k1921vg015.S:81
    mv    tp, sp
80000050:	00010213          	mv	tp,sp
D:\temp\K1921VG015\proj\Run_leds__2\Debug/../platform/source/startup_k1921vg015.S:82
    csrw  mscratch, sp
80000054:	34011073          	csrw	mscratch,sp
D:\temp\K1921VG015\proj\Run_leds__2\Debug/../platform/source/startup_k1921vg015.S:89
    // reserve trap stack space
    li    t0, PLF_TRAP_STACK
    sub   sp, sp, t0
#endif // PLF_TRAP_STACK
    ## platform init
    load_addrword t0, plf_init
80000058:	800002b7          	lui	t0,0x80000
8000005c:	0b028293          	addi	t0,t0,176 # 800000b0 <plf_init>
D:\temp\K1921VG015\proj\Run_leds__2\Debug/../platform/source/startup_k1921vg015.S:90
    jalr  t0
80000060:	000280e7          	jalr	t0
D:\temp\K1921VG015\proj\Run_leds__2\Debug/../platform/source/startup_k1921vg015.S:93
    ## jal  plf_init
    ## application-specific initialization hook
    load_addrword t0, app_init
80000064:	800002b7          	lui	t0,0x80000
80000068:	0a428293          	addi	t0,t0,164 # 800000a4 <app_init>
D:\temp\K1921VG015\proj\Run_leds__2\Debug/../platform/source/startup_k1921vg015.S:94
    jalr  t0
8000006c:	000280e7          	jalr	t0
D:\temp\K1921VG015\proj\Run_leds__2\Debug/../platform/source/startup_k1921vg015.S:97
    ## jal  app_init
    ## main() args
    li    a0, 0
80000070:	00000513          	li	a0,0
D:\temp\K1921VG015\proj\Run_leds__2\Debug/../platform/source/startup_k1921vg015.S:98
    li    a1, 0
80000074:	00000593          	li	a1,0
D:\temp\K1921VG015\proj\Run_leds__2\Debug/../platform/source/startup_k1921vg015.S:110
#if PLF_SMP_NON_COHERENT
    clflush t1
#endif // PLF_SMP_NON_COHERENT
#endif // PLF_SMP_SUPPORT
    ## start main
    load_addrword t0, main
80000078:	800012b7          	lui	t0,0x80001
8000007c:	0e628293          	addi	t0,t0,230 # 800010e6 <main>
D:\temp\K1921VG015\proj\Run_leds__2\Debug/../platform/source/startup_k1921vg015.S:111
    load_addrword ra, exit
80000080:	800000b7          	lui	ra,0x80000
80000084:	09c08093          	addi	ra,ra,156 # 8000009c <exit>
D:\temp\K1921VG015\proj\Run_leds__2\Debug/../platform/source/startup_k1921vg015.S:112
    jr    t0
80000088:	00028067          	jr	t0

8000008c <_hart_halt>:
_hart_halt():
D:\temp\K1921VG015\proj\Run_leds__2\Debug/../platform/source/startup_k1921vg015.S:159
1:  wfi
    j     1b
#endif // PLF_SMP_SUPPORT
#else // PLF_HTIF_BASE
    ## disable interrupts
    csrci mstatus, 0xf
8000008c:	3007f073          	csrci	mstatus,15
D:\temp\K1921VG015\proj\Run_leds__2\Debug/../platform/source/startup_k1921vg015.S:160
    csrw  mie, zero
80000090:	30401073          	csrw	mie,zero
D:\temp\K1921VG015\proj\Run_leds__2\Debug/../platform/source/startup_k1921vg015.S:161
1:  wfi
80000094:	10500073          	wfi
D:\temp\K1921VG015\proj\Run_leds__2\Debug/../platform/source/startup_k1921vg015.S:162
    j     1b
80000098:	ffdff06f          	j	80000094 <_hart_halt+0x8>

8000009c <exit>:
exit():
D:\temp\K1921VG015\proj\Run_leds__2\Debug/../platform/source/startup_k1921vg015.S:166
#endif // PLF_HTIF_BASE

exit:
    nop
8000009c:	00000013          	nop

800000a0 <abort>:
abort():
D:\temp\K1921VG015\proj\Run_leds__2\Debug/../platform/source/startup_k1921vg015.S:168
abort:
    j     _hart_halt
800000a0:	fedff06f          	j	8000008c <_hart_halt>

800000a4 <app_init>:
app_init():
D:\temp\K1921VG015\proj\Run_leds__2\Debug/../platform/source/startup_k1921vg015.S:216
    jr    t0
#endif // PLF_SMP_SUPPORT

    ## stubs
app_init:
    ret
800000a4:	00008067          	ret
	...

800000b0 <plf_init>:
plf_init_generic():
D:\temp\K1921VG015\proj\Run_leds__2\Debug/../platform/source/sys_init.c:30
{
    // do nothing
}

void __init plf_init_generic(void)
{
800000b0:	1141                	addi	sp,sp,-16 # 4003fff0 <__STACK_START__+0x7f0>
800000b2:	c606                	sw	ra,12(sp)
D:\temp\K1921VG015\proj\Run_leds__2\Debug/../platform/source/sys_init.c:32
    // init BSS
    memset(__bss_start, 0, (size_t)(__bss_end - __bss_start));
800000b4:	ab018613          	addi	a2,gp,-1360 # 40000230 <last_led_update.0>
800000b8:	b4418793          	addi	a5,gp,-1212 # 400002c4 <__BSS_END__>
800000bc:	40c78633          	sub	a2,a5,a2
800000c0:	4581                	li	a1,0
800000c2:	ab018513          	addi	a0,gp,-1360 # 40000230 <last_led_update.0>
800000c6:	0e4010ef          	jal	800011aa <memset>
D:\temp\K1921VG015\proj\Run_leds__2\Debug/../platform/source/sys_init.c:36

    memcpy((void*)&__data_target_start,
           (const void*)&__data_source_start,
           (&__data_target_end - &__data_target_start));
800000ca:	89018613          	addi	a2,gp,-1904 # 40000010 <supervisor_plic_handler>
D:\temp\K1921VG015\proj\Run_leds__2\Debug/../platform/source/sys_init.c:34
    memcpy((void*)&__data_target_start,
800000ce:	ab018793          	addi	a5,gp,-1360 # 40000230 <last_led_update.0>
800000d2:	40c78633          	sub	a2,a5,a2
800000d6:	800025b7          	lui	a1,0x80002
800000da:	22858593          	addi	a1,a1,552 # 80002228 <__data_source_start>
800000de:	89018513          	addi	a0,gp,-1904 # 40000010 <supervisor_plic_handler>
800000e2:	170010ef          	jal	80001252 <memcpy>
D:\temp\K1921VG015\proj\Run_leds__2\Debug/../platform/source/sys_init.c:40

    memcpy((void*)&__sdata_target_start,
              (const void*)&__sdata_source_start,
              (&__sdata_target_end - &__sdata_target_start));
800000e6:	88018613          	addi	a2,gp,-1920 # 40000000 <prev_button_state.1>
D:\temp\K1921VG015\proj\Run_leds__2\Debug/../platform/source/sys_init.c:38
    memcpy((void*)&__sdata_target_start,
800000ea:	89018793          	addi	a5,gp,-1904 # 40000010 <supervisor_plic_handler>
800000ee:	40c78633          	sub	a2,a5,a2
800000f2:	800025b7          	lui	a1,0x80002
800000f6:	21858593          	addi	a1,a1,536 # 80002218 <__sdata_source_start>
800000fa:	88018513          	addi	a0,gp,-1920 # 40000000 <prev_button_state.1>
800000fe:	154010ef          	jal	80001252 <memcpy>
D:\temp\K1921VG015\proj\Run_leds__2\Debug/../platform/source/sys_init.c:41
}
80000102:	40b2                	lw	ra,12(sp)
80000104:	0141                	addi	sp,sp,16
80000106:	8082                	ret

Disassembly of section .text.crt:

80000140 <trap_entry>:
trap_entry():
D:\temp\K1921VG015\proj\Run_leds__2\Debug/../platform/source/startup_k1921vg015.S:250
    .section ".text.crt.trap_entry","ax",@progbits
    .align 6
    .type trap_entry, @function
trap_entry:
    ## save context
    context_save
80000140:	fe512e23          	sw	t0,-4(sp)
80000144:	00010293          	mv	t0,sp
80000148:	f8010113          	addi	sp,sp,-128
8000014c:	ff017113          	andi	sp,sp,-16
80000150:	00112223          	sw	ra,4(sp)
80000154:	00512423          	sw	t0,8(sp)
80000158:	ffc2a283          	lw	t0,-4(t0)
8000015c:	00312623          	sw	gp,12(sp)
80000160:	00412823          	sw	tp,16(sp)
80000164:	00512a23          	sw	t0,20(sp)
80000168:	00612c23          	sw	t1,24(sp)
8000016c:	00712e23          	sw	t2,28(sp)
80000170:	02812023          	sw	s0,32(sp)
80000174:	02912223          	sw	s1,36(sp)
80000178:	02a12423          	sw	a0,40(sp)
8000017c:	02b12623          	sw	a1,44(sp)
80000180:	02c12823          	sw	a2,48(sp)
80000184:	02d12a23          	sw	a3,52(sp)
80000188:	02e12c23          	sw	a4,56(sp)
8000018c:	02f12e23          	sw	a5,60(sp)
80000190:	05012023          	sw	a6,64(sp)
80000194:	05112223          	sw	a7,68(sp)
80000198:	05212423          	sw	s2,72(sp)
8000019c:	05312623          	sw	s3,76(sp)
800001a0:	05412823          	sw	s4,80(sp)
800001a4:	05512a23          	sw	s5,84(sp)
800001a8:	05612c23          	sw	s6,88(sp)
800001ac:	05712e23          	sw	s7,92(sp)
800001b0:	07812023          	sw	s8,96(sp)
800001b4:	07912223          	sw	s9,100(sp)
800001b8:	07a12423          	sw	s10,104(sp)
800001bc:	07b12623          	sw	s11,108(sp)
800001c0:	07c12823          	sw	t3,112(sp)
800001c4:	07d12a23          	sw	t4,116(sp)
800001c8:	07e12c23          	sw	t5,120(sp)
800001cc:	07f12e23          	sw	t6,124(sp)
800001d0:	34002273          	csrr	tp,mscratch
800001d4:	34102373          	csrr	t1,mepc
800001d8:	00612023          	sw	t1,0(sp)
D:\temp\K1921VG015\proj\Run_leds__2\Debug/../platform/source/startup_k1921vg015.S:252
    ## save mstatus priv stack
    csrr s0, mstatus
800001dc:	30002473          	csrr	s0,mstatus
D:\temp\K1921VG015\proj\Run_leds__2\Debug/../platform/source/startup_k1921vg015.S:254
    ## load trap handler args
    csrr a0, mcause
800001e0:	34202573          	csrr	a0,mcause
D:\temp\K1921VG015\proj\Run_leds__2\Debug/../platform/source/startup_k1921vg015.S:255
    csrr a1, mepc
800001e4:	341025f3          	csrr	a1,mepc
D:\temp\K1921VG015\proj\Run_leds__2\Debug/../platform/source/startup_k1921vg015.S:256
    mv   a2, sp
800001e8:	00010613          	mv	a2,sp
D:\temp\K1921VG015\proj\Run_leds__2\Debug/../platform/source/startup_k1921vg015.S:259

    ## setup gp
    load_addrword_abs gp, __global_pointer$
800001ec:	400001b7          	lui	gp,0x40000
800001f0:	78018193          	addi	gp,gp,1920 # 40000780 <__global_pointer$>
D:\temp\K1921VG015\proj\Run_leds__2\Debug/../platform/source/startup_k1921vg015.S:261
    ## call trap handler
    load_addrword t0, trap_handler
800001f4:	800012b7          	lui	t0,0x80001
800001f8:	0ce28293          	addi	t0,t0,206 # 800010ce <trap_handler>
D:\temp\K1921VG015\proj\Run_leds__2\Debug/../platform/source/startup_k1921vg015.S:262
    jalr t0
800001fc:	000280e7          	jalr	t0
D:\temp\K1921VG015\proj\Run_leds__2\Debug/../platform/source/startup_k1921vg015.S:265

    ## restore mstatus priv stack
    csrw mstatus, s0
80000200:	30041073          	csrw	mstatus,s0
D:\temp\K1921VG015\proj\Run_leds__2\Debug/../platform/source/startup_k1921vg015.S:267
    ## restore context
    context_restore
80000204:	00012303          	lw	t1,0(sp)
80000208:	34131073          	csrw	mepc,t1
8000020c:	00c12183          	lw	gp,12(sp)
80000210:	01012203          	lw	tp,16(sp)
80000214:	01412283          	lw	t0,20(sp)
80000218:	01812303          	lw	t1,24(sp)
8000021c:	01c12383          	lw	t2,28(sp)
80000220:	02012403          	lw	s0,32(sp)
80000224:	02412483          	lw	s1,36(sp)
80000228:	02812503          	lw	a0,40(sp)
8000022c:	02c12583          	lw	a1,44(sp)
80000230:	03012603          	lw	a2,48(sp)
80000234:	03412683          	lw	a3,52(sp)
80000238:	03812703          	lw	a4,56(sp)
8000023c:	03c12783          	lw	a5,60(sp)
80000240:	04012803          	lw	a6,64(sp)
80000244:	04412883          	lw	a7,68(sp)
80000248:	04812903          	lw	s2,72(sp)
8000024c:	04c12983          	lw	s3,76(sp)
80000250:	05012a03          	lw	s4,80(sp)
80000254:	05412a83          	lw	s5,84(sp)
80000258:	05812b03          	lw	s6,88(sp)
8000025c:	05c12b83          	lw	s7,92(sp)
80000260:	06012c03          	lw	s8,96(sp)
80000264:	06412c83          	lw	s9,100(sp)
80000268:	06812d03          	lw	s10,104(sp)
8000026c:	06c12d83          	lw	s11,108(sp)
80000270:	07012e03          	lw	t3,112(sp)
80000274:	07412e83          	lw	t4,116(sp)
80000278:	07812f03          	lw	t5,120(sp)
8000027c:	07c12f83          	lw	t6,124(sp)
80000280:	00412083          	lw	ra,4(sp)
80000284:	00812103          	lw	sp,8(sp)
D:\temp\K1921VG015\proj\Run_leds__2\Debug/../platform/source/startup_k1921vg015.S:268
    mret
80000288:	30200073          	mret
	...

Disassembly of section .text:

800002c4 <PLIC_SetIrqHandler>:
PLIC_SetIrqHandler():
D:\temp\K1921VG015\proj\Run_leds__2\Debug/../platform/source/plic.c:53
 * Set PLIC handler function for isr num
 */

void PLIC_SetIrqHandler (uint8_t target, uint32_t isr_num, irqfunc* func)
{
    if(target == Plic_Mach_Target) {
800002c4:	e519                	bnez	a0,800002d2 <PLIC_SetIrqHandler+0xe>
D:\temp\K1921VG015\proj\Run_leds__2\Debug/../platform/source/plic.c:54
        mach_plic_handler[isr_num] = func;
800002c6:	058a                	slli	a1,a1,0x2
800002c8:	91018793          	addi	a5,gp,-1776 # 40000090 <mach_plic_handler>
800002cc:	97ae                	add	a5,a5,a1
800002ce:	c390                	sw	a2,0(a5)
800002d0:	8082                	ret
D:\temp\K1921VG015\proj\Run_leds__2\Debug/../platform/source/plic.c:56
    } else {
        supervisor_plic_handler[isr_num] = func;
800002d2:	058a                	slli	a1,a1,0x2
800002d4:	89018793          	addi	a5,gp,-1904 # 40000010 <supervisor_plic_handler>
800002d8:	97ae                	add	a5,a5,a1
800002da:	c390                	sw	a2,0(a5)
D:\temp\K1921VG015\proj\Run_leds__2\Debug/../platform/source/plic.c:58
    }
}
800002dc:	8082                	ret

800002de <PLIC_SetPriority>:
PLIC_SetPriority():
D:\temp\K1921VG015\proj\Run_leds__2\Debug/../platform/source/plic.c:65
 * Set PLIC irq priority
 */

void PLIC_SetPriority (uint32_t isr_num, uint8_t pri)
{
    PLIC->PRI[isr_num] = pri;
800002de:	050a                	slli	a0,a0,0x2
800002e0:	0c0007b7          	lui	a5,0xc000
800002e4:	97aa                	add	a5,a5,a0
800002e6:	c38c                	sw	a1,0(a5)
D:\temp\K1921VG015\proj\Run_leds__2\Debug/../platform/source/plic.c:66
}
800002e8:	8082                	ret

800002ea <PLIC_IntEnable>:
PLIC_IntEnable():
D:\temp\K1921VG015\proj\Run_leds__2\Debug/../platform/source/plic.c:87
{
	uint32_t value;

	//read - modify - write operation

    if(target == Plic_Mach_Target) {
800002ea:	e911                	bnez	a0,800002fe <PLIC_IntEnable+0x14>
D:\temp\K1921VG015\proj\Run_leds__2\Debug/../platform/source/plic.c:88
    	value  = PLIC->MIEM0;
800002ec:	0c002737          	lui	a4,0xc002
800002f0:	4314                	lw	a3,0(a4)
D:\temp\K1921VG015\proj\Run_leds__2\Debug/../platform/source/plic.c:89
    	value |= (1<<isr_num);
800002f2:	4785                	li	a5,1
800002f4:	00b797b3          	sll	a5,a5,a1
800002f8:	8fd5                	or	a5,a5,a3
D:\temp\K1921VG015\proj\Run_leds__2\Debug/../platform/source/plic.c:90
    	PLIC->MIEM0 = value;
800002fa:	c31c                	sw	a5,0(a4)
800002fc:	8082                	ret
D:\temp\K1921VG015\proj\Run_leds__2\Debug/../platform/source/plic.c:92
    } else {
    	value = PLIC->UIEM0;
800002fe:	0c002737          	lui	a4,0xc002
80000302:	08072683          	lw	a3,128(a4) # c002080 <retarget.c.918a4a7b+0xbff81f4>
D:\temp\K1921VG015\proj\Run_leds__2\Debug/../platform/source/plic.c:93
    	value |= (1<<isr_num);
80000306:	4785                	li	a5,1
80000308:	00b797b3          	sll	a5,a5,a1
8000030c:	8fd5                	or	a5,a5,a3
D:\temp\K1921VG015\proj\Run_leds__2\Debug/../platform/source/plic.c:94
    	PLIC->UIEM0 = value;
8000030e:	08f72023          	sw	a5,128(a4)
D:\temp\K1921VG015\proj\Run_leds__2\Debug/../platform/source/plic.c:96
    }
}
80000312:	8082                	ret

80000314 <PLIC_ClaimIrq>:
PLIC_ClaimIrq():
D:\temp\K1921VG015\proj\Run_leds__2\Debug/../platform/source/plic.c:125
 * Get current isr number
 */

uint32_t PLIC_ClaimIrq (uint8_t target)
{
	if(target == Plic_Mach_Target) {
80000314:	e509                	bnez	a0,8000031e <PLIC_ClaimIrq+0xa>
D:\temp\K1921VG015\proj\Run_leds__2\Debug/../platform/source/plic.c:126
		return (uint32_t)(PLIC->MICC);
80000316:	0c2007b7          	lui	a5,0xc200
8000031a:	43c8                	lw	a0,4(a5)
8000031c:	8082                	ret
D:\temp\K1921VG015\proj\Run_leds__2\Debug/../platform/source/plic.c:128
	} else {
		return (uint32_t)(PLIC->UICC);
8000031e:	0c2017b7          	lui	a5,0xc201
80000322:	43c8                	lw	a0,4(a5)
D:\temp\K1921VG015\proj\Run_leds__2\Debug/../platform/source/plic.c:130
	}
}
80000324:	8082                	ret

80000326 <PLIC_ClaimComplete>:
PLIC_ClaimComplete():
D:\temp\K1921VG015\proj\Run_leds__2\Debug/../platform/source/plic.c:138
 * Set current isr as completed
 */

void PLIC_ClaimComplete (uint8_t target, uint32_t isrnum)
{
	if(target == Plic_Mach_Target) {
80000326:	e509                	bnez	a0,80000330 <PLIC_ClaimComplete+0xa>
D:\temp\K1921VG015\proj\Run_leds__2\Debug/../platform/source/plic.c:139
		PLIC->MICC = isrnum;
80000328:	0c2007b7          	lui	a5,0xc200
8000032c:	c3cc                	sw	a1,4(a5)
8000032e:	8082                	ret
D:\temp\K1921VG015\proj\Run_leds__2\Debug/../platform/source/plic.c:141
	} else {
		PLIC->UICC = isrnum;
80000330:	0c2017b7          	lui	a5,0xc201
80000334:	c3cc                	sw	a1,4(a5)
D:\temp\K1921VG015\proj\Run_leds__2\Debug/../platform/source/plic.c:143
	}
}
80000336:	8082                	ret

80000338 <PLIC_SetThreshold>:
PLIC_SetThreshold():
D:\temp\K1921VG015\proj\Run_leds__2\Debug/../platform/source/plic.c:150
/*
 * Set threshold for irqs
 */

void PLIC_SetThreshold(uint8_t target, uint32_t value) {
	if(target == Plic_Mach_Target) {
80000338:	e509                	bnez	a0,80000342 <PLIC_SetThreshold+0xa>
D:\temp\K1921VG015\proj\Run_leds__2\Debug/../platform/source/plic.c:151
		PLIC->MTHR = value;
8000033a:	0c2007b7          	lui	a5,0xc200
8000033e:	c38c                	sw	a1,0(a5)
80000340:	8082                	ret
D:\temp\K1921VG015\proj\Run_leds__2\Debug/../platform/source/plic.c:153
	} else {
		PLIC->UTHR = value;
80000342:	0c2017b7          	lui	a5,0xc201
80000346:	c38c                	sw	a1,0(a5)
D:\temp\K1921VG015\proj\Run_leds__2\Debug/../platform/source/plic.c:155
	}
}
80000348:	8082                	ret

8000034a <PLIC_MachHandler>:
PLIC_MachHandler():
D:\temp\K1921VG015\proj\Run_leds__2\Debug/../platform/source/plic.c:158


void PLIC_MachHandler(void) {
8000034a:	1141                	addi	sp,sp,-16
8000034c:	c606                	sw	ra,12(sp)
D:\temp\K1921VG015\proj\Run_leds__2\Debug/../platform/source/plic.c:161

	// handle interrupt
	uint32_t isr_num = PLIC_ClaimIrq(Plic_Mach_Target);
8000034e:	4501                	li	a0,0
80000350:	37d1                	jal	80000314 <PLIC_ClaimIrq>
D:\temp\K1921VG015\proj\Run_leds__2\Debug/../platform/source/plic.c:163
	// check if handler exist
	if(mach_plic_handler[isr_num] != NULL_IRQ) {
80000352:	00251713          	slli	a4,a0,0x2
80000356:	91018793          	addi	a5,gp,-1776 # 40000090 <mach_plic_handler>
8000035a:	97ba                	add	a5,a5,a4
8000035c:	439c                	lw	a5,0(a5)
8000035e:	cb81                	beqz	a5,8000036e <PLIC_MachHandler+0x24>
80000360:	c422                	sw	s0,8(sp)
80000362:	842a                	mv	s0,a0
D:\temp\K1921VG015\proj\Run_leds__2\Debug/../platform/source/plic.c:165
		// call isr handler
		mach_plic_handler[isr_num]();
80000364:	9782                	jalr	a5
D:\temp\K1921VG015\proj\Run_leds__2\Debug/../platform/source/plic.c:167
		// set isr completes
		PLIC_ClaimComplete(Plic_Mach_Target, isr_num);
80000366:	85a2                	mv	a1,s0
80000368:	4501                	li	a0,0
8000036a:	3f75                	jal	80000326 <PLIC_ClaimComplete>
8000036c:	4422                	lw	s0,8(sp)
D:\temp\K1921VG015\proj\Run_leds__2\Debug/../platform/source/plic.c:169
	}
}
8000036e:	40b2                	lw	ra,12(sp)
80000370:	0141                	addi	sp,sp,16
80000372:	8082                	ret

80000374 <PutChar>:
PutChar():
D:\temp\K1921VG015\proj\Run_leds__2\Debug/../platform/source/printf.c:41
 * @param  pStr	Storage string.
 * @param  c    Character to write.
 */
signed int PutChar(char *pStr, char c)
{
    *pStr = c;
80000374:	00b50023          	sb	a1,0(a0) # 2000 <system_k1921vg015.c.08e00f8f+0x137>
D:\temp\K1921VG015\proj\Run_leds__2\Debug/../platform/source/printf.c:43
    return 1;
}
80000378:	4505                	li	a0,1
8000037a:	8082                	ret

8000037c <PutString>:
PutString():
D:\temp\K1921VG015\proj\Run_leds__2\Debug/../platform/source/printf.c:54
 * @param  pStr     Storage string.
 * @param  pSource  Source string.
 * @return  The size of the written
 */
signed int PutString(char *pStr, const char *pSource)
{
8000037c:	87aa                	mv	a5,a0
D:\temp\K1921VG015\proj\Run_leds__2\Debug/../platform/source/printf.c:55
    signed int num = 0;
8000037e:	4501                	li	a0,0
D:\temp\K1921VG015\proj\Run_leds__2\Debug/../platform/source/printf.c:57

    while (*pSource != 0) {
80000380:	a031                	j	8000038c <PutString+0x10>
D:\temp\K1921VG015\proj\Run_leds__2\Debug/../platform/source/printf.c:59

        *pStr++ = *pSource++;
80000382:	0585                	addi	a1,a1,1
80000384:	00e78023          	sb	a4,0(a5) # c201000 <retarget.c.918a4a7b+0xc1f7174>
D:\temp\K1921VG015\proj\Run_leds__2\Debug/../platform/source/printf.c:60
        num++;
80000388:	0505                	addi	a0,a0,1
D:\temp\K1921VG015\proj\Run_leds__2\Debug/../platform/source/printf.c:59
        *pStr++ = *pSource++;
8000038a:	0785                	addi	a5,a5,1
D:\temp\K1921VG015\proj\Run_leds__2\Debug/../platform/source/printf.c:57
    while (*pSource != 0) {
8000038c:	00058703          	lb	a4,0(a1)
80000390:	fb6d                	bnez	a4,80000382 <PutString+0x6>
D:\temp\K1921VG015\proj\Run_leds__2\Debug/../platform/source/printf.c:64
    }

    return num;
}
80000392:	8082                	ret

80000394 <PutUnsignedInt>:
PutUnsignedInt():
D:\temp\K1921VG015\proj\Run_leds__2\Debug/../platform/source/printf.c:81
signed int PutUnsignedInt(
    char *pStr,
    char fill,
    signed int width,
    unsigned int value)
{
80000394:	1101                	addi	sp,sp,-32
80000396:	ce06                	sw	ra,28(sp)
80000398:	cc22                	sw	s0,24(sp)
8000039a:	ca26                	sw	s1,20(sp)
8000039c:	c84a                	sw	s2,16(sp)
8000039e:	c64e                	sw	s3,12(sp)
800003a0:	c452                	sw	s4,8(sp)
800003a2:	842a                	mv	s0,a0
800003a4:	89ae                	mv	s3,a1
800003a6:	8a36                	mv	s4,a3
D:\temp\K1921VG015\proj\Run_leds__2\Debug/../platform/source/printf.c:85
    signed int num = 0;

    /* Take current digit into account when calculating width */
    width--;
800003a8:	fff60493          	addi	s1,a2,-1
D:\temp\K1921VG015\proj\Run_leds__2\Debug/../platform/source/printf.c:88

    /* Recursively write upper digits */
    if ((value / 10) > 0) {
800003ac:	47a5                	li	a5,9
800003ae:	00d7e463          	bltu	a5,a3,800003b6 <PutUnsignedInt+0x22>
D:\temp\K1921VG015\proj\Run_leds__2\Debug/../platform/source/printf.c:82
    signed int num = 0;
800003b2:	4901                	li	s2,0
800003b4:	a01d                	j	800003da <PutUnsignedInt+0x46>
D:\temp\K1921VG015\proj\Run_leds__2\Debug/../platform/source/printf.c:90

        num = PutUnsignedInt(pStr, fill, width, value / 10);
800003b6:	ccccd6b7          	lui	a3,0xccccd
800003ba:	ccd68693          	addi	a3,a3,-819 # cccccccd <__data_source_start+0x4cccaaa5>
800003be:	02da36b3          	mulhu	a3,s4,a3
800003c2:	828d                	srli	a3,a3,0x3
800003c4:	8626                	mv	a2,s1
800003c6:	37f9                	jal	80000394 <PutUnsignedInt>
800003c8:	892a                	mv	s2,a0
D:\temp\K1921VG015\proj\Run_leds__2\Debug/../platform/source/printf.c:91
        pStr += num;
800003ca:	942a                	add	s0,s0,a0
800003cc:	a809                	j	800003de <PutUnsignedInt+0x4a>
D:\temp\K1921VG015\proj\Run_leds__2\Debug/../platform/source/printf.c:99
    /* Write filler characters */
    else {

        while (width > 0) {

            PutChar(pStr, fill);
800003ce:	85ce                	mv	a1,s3
800003d0:	8522                	mv	a0,s0
800003d2:	374d                	jal	80000374 <PutChar>
D:\temp\K1921VG015\proj\Run_leds__2\Debug/../platform/source/printf.c:100
            pStr++;
800003d4:	0405                	addi	s0,s0,1
D:\temp\K1921VG015\proj\Run_leds__2\Debug/../platform/source/printf.c:101
            num++;
800003d6:	0905                	addi	s2,s2,1
D:\temp\K1921VG015\proj\Run_leds__2\Debug/../platform/source/printf.c:102
            width--;
800003d8:	14fd                	addi	s1,s1,-1
D:\temp\K1921VG015\proj\Run_leds__2\Debug/../platform/source/printf.c:97
        while (width > 0) {
800003da:	fe904ae3          	bgtz	s1,800003ce <PutUnsignedInt+0x3a>
D:\temp\K1921VG015\proj\Run_leds__2\Debug/../platform/source/printf.c:107
        }
    }

    /* Write lower digit */
    num += PutChar(pStr, (value % 10) + '0');
800003de:	ccccd5b7          	lui	a1,0xccccd
800003e2:	ccd58593          	addi	a1,a1,-819 # cccccccd <__data_source_start+0x4cccaaa5>
800003e6:	02ba35b3          	mulhu	a1,s4,a1
800003ea:	818d                	srli	a1,a1,0x3
800003ec:	00259793          	slli	a5,a1,0x2
800003f0:	97ae                	add	a5,a5,a1
800003f2:	0786                	slli	a5,a5,0x1
800003f4:	40fa05b3          	sub	a1,s4,a5
800003f8:	03058593          	addi	a1,a1,48
800003fc:	05e2                	slli	a1,a1,0x18
800003fe:	85e1                	srai	a1,a1,0x18
80000400:	8522                	mv	a0,s0
80000402:	3f8d                	jal	80000374 <PutChar>
D:\temp\K1921VG015\proj\Run_leds__2\Debug/../platform/source/printf.c:110

    return num;
}
80000404:	954a                	add	a0,a0,s2
80000406:	40f2                	lw	ra,28(sp)
80000408:	4462                	lw	s0,24(sp)
8000040a:	44d2                	lw	s1,20(sp)
8000040c:	4942                	lw	s2,16(sp)
8000040e:	49b2                	lw	s3,12(sp)
80000410:	4a22                	lw	s4,8(sp)
80000412:	6105                	addi	sp,sp,32
80000414:	8082                	ret

80000416 <PutSignedInt>:
PutSignedInt():
D:\temp\K1921VG015\proj\Run_leds__2\Debug/../platform/source/printf.c:127
signed int PutSignedInt(
    char *pStr,
    char fill,
    signed int width,
    signed int value)
{
80000416:	1101                	addi	sp,sp,-32
80000418:	ce06                	sw	ra,28(sp)
8000041a:	cc22                	sw	s0,24(sp)
8000041c:	ca26                	sw	s1,20(sp)
8000041e:	c84a                	sw	s2,16(sp)
80000420:	c64e                	sw	s3,12(sp)
80000422:	c452                	sw	s4,8(sp)
80000424:	c256                	sw	s5,4(sp)
80000426:	842a                	mv	s0,a0
80000428:	89ae                	mv	s3,a1
8000042a:	8a36                	mv	s4,a3
D:\temp\K1921VG015\proj\Run_leds__2\Debug/../platform/source/printf.c:132
    signed int num = 0;
    unsigned int absolute;

    /* Compute absolute value */
    if (value < 0) {
8000042c:	0606c463          	bltz	a3,80000494 <PutSignedInt+0x7e>
D:\temp\K1921VG015\proj\Run_leds__2\Debug/../platform/source/printf.c:138

        absolute = -value;
    }
    else {

        absolute = value;
80000430:	8ab6                	mv	s5,a3
D:\temp\K1921VG015\proj\Run_leds__2\Debug/../platform/source/printf.c:142
    }

    /* Take current digit into account when calculating width */
    width--;
80000432:	fff60493          	addi	s1,a2,-1
D:\temp\K1921VG015\proj\Run_leds__2\Debug/../platform/source/printf.c:145

    /* Recursively write upper digits */
    if ((absolute / 10) > 0) {
80000436:	47a5                	li	a5,9
80000438:	0957f063          	bgeu	a5,s5,800004b8 <PutSignedInt+0xa2>
D:\temp\K1921VG015\proj\Run_leds__2\Debug/../platform/source/printf.c:147

        if (value < 0) {
8000043c:	040a4f63          	bltz	s4,8000049a <PutSignedInt+0x84>
D:\temp\K1921VG015\proj\Run_leds__2\Debug/../platform/source/printf.c:153

            num = PutSignedInt(pStr, fill, width, -(absolute / 10));
        }
        else {

            num = PutSignedInt(pStr, fill, width, absolute / 10);
80000440:	ccccd6b7          	lui	a3,0xccccd
80000444:	ccd68693          	addi	a3,a3,-819 # cccccccd <__data_source_start+0x4cccaaa5>
80000448:	02dab6b3          	mulhu	a3,s5,a3
8000044c:	828d                	srli	a3,a3,0x3
8000044e:	8626                	mv	a2,s1
80000450:	85ce                	mv	a1,s3
80000452:	8522                	mv	a0,s0
80000454:	37c9                	jal	80000416 <PutSignedInt>
80000456:	892a                	mv	s2,a0
D:\temp\K1921VG015\proj\Run_leds__2\Debug/../platform/source/printf.c:155
        }
        pStr += num;
80000458:	944a                	add	s0,s0,s2
D:\temp\K1921VG015\proj\Run_leds__2\Debug/../platform/source/printf.c:183
            pStr++;
        }
    }

    /* Write lower digit */
    num += PutChar(pStr, (absolute % 10) + '0');
8000045a:	ccccd5b7          	lui	a1,0xccccd
8000045e:	ccd58593          	addi	a1,a1,-819 # cccccccd <__data_source_start+0x4cccaaa5>
80000462:	02bab5b3          	mulhu	a1,s5,a1
80000466:	818d                	srli	a1,a1,0x3
80000468:	00259793          	slli	a5,a1,0x2
8000046c:	97ae                	add	a5,a5,a1
8000046e:	0786                	slli	a5,a5,0x1
80000470:	40fa85b3          	sub	a1,s5,a5
80000474:	03058593          	addi	a1,a1,48
80000478:	05e2                	slli	a1,a1,0x18
8000047a:	85e1                	srai	a1,a1,0x18
8000047c:	8522                	mv	a0,s0
8000047e:	3ddd                	jal	80000374 <PutChar>
D:\temp\K1921VG015\proj\Run_leds__2\Debug/../platform/source/printf.c:186

    return num;
}
80000480:	954a                	add	a0,a0,s2
80000482:	40f2                	lw	ra,28(sp)
80000484:	4462                	lw	s0,24(sp)
80000486:	44d2                	lw	s1,20(sp)
80000488:	4942                	lw	s2,16(sp)
8000048a:	49b2                	lw	s3,12(sp)
8000048c:	4a22                	lw	s4,8(sp)
8000048e:	4a92                	lw	s5,4(sp)
80000490:	6105                	addi	sp,sp,32
80000492:	8082                	ret
D:\temp\K1921VG015\proj\Run_leds__2\Debug/../platform/source/printf.c:134
        absolute = -value;
80000494:	40d00ab3          	neg	s5,a3
80000498:	bf69                	j	80000432 <PutSignedInt+0x1c>
D:\temp\K1921VG015\proj\Run_leds__2\Debug/../platform/source/printf.c:149
            num = PutSignedInt(pStr, fill, width, -(absolute / 10));
8000049a:	ccccd6b7          	lui	a3,0xccccd
8000049e:	ccd68693          	addi	a3,a3,-819 # cccccccd <__data_source_start+0x4cccaaa5>
800004a2:	02dab6b3          	mulhu	a3,s5,a3
800004a6:	828d                	srli	a3,a3,0x3
800004a8:	40d006b3          	neg	a3,a3
800004ac:	8626                	mv	a2,s1
800004ae:	85ce                	mv	a1,s3
800004b0:	8522                	mv	a0,s0
800004b2:	3795                	jal	80000416 <PutSignedInt>
800004b4:	892a                	mv	s2,a0
800004b6:	b74d                	j	80000458 <PutSignedInt+0x42>
D:\temp\K1921VG015\proj\Run_leds__2\Debug/../platform/source/printf.c:160
        if (value < 0) {
800004b8:	000a4463          	bltz	s4,800004c0 <PutSignedInt+0xaa>
D:\temp\K1921VG015\proj\Run_leds__2\Debug/../platform/source/printf.c:127
{
800004bc:	4901                	li	s2,0
800004be:	a811                	j	800004d2 <PutSignedInt+0xbc>
D:\temp\K1921VG015\proj\Run_leds__2\Debug/../platform/source/printf.c:162
            width--;
800004c0:	ffe60493          	addi	s1,a2,-2
800004c4:	bfe5                	j	800004bc <PutSignedInt+0xa6>
D:\temp\K1921VG015\proj\Run_leds__2\Debug/../platform/source/printf.c:168
            PutChar(pStr, fill);
800004c6:	85ce                	mv	a1,s3
800004c8:	8522                	mv	a0,s0
800004ca:	356d                	jal	80000374 <PutChar>
D:\temp\K1921VG015\proj\Run_leds__2\Debug/../platform/source/printf.c:169
            pStr++;
800004cc:	0405                	addi	s0,s0,1
D:\temp\K1921VG015\proj\Run_leds__2\Debug/../platform/source/printf.c:170
            num++;
800004ce:	0905                	addi	s2,s2,1
D:\temp\K1921VG015\proj\Run_leds__2\Debug/../platform/source/printf.c:171
            width--;
800004d0:	14fd                	addi	s1,s1,-1
D:\temp\K1921VG015\proj\Run_leds__2\Debug/../platform/source/printf.c:166
        while (width > 0) {
800004d2:	fe904ae3          	bgtz	s1,800004c6 <PutSignedInt+0xb0>
D:\temp\K1921VG015\proj\Run_leds__2\Debug/../platform/source/printf.c:175
        if (value < 0) {
800004d6:	f80a52e3          	bgez	s4,8000045a <PutSignedInt+0x44>
D:\temp\K1921VG015\proj\Run_leds__2\Debug/../platform/source/printf.c:177
            num += PutChar(pStr, '-');
800004da:	02d00593          	li	a1,45
800004de:	8522                	mv	a0,s0
800004e0:	3d51                	jal	80000374 <PutChar>
D:\temp\K1921VG015\proj\Run_leds__2\Debug/../platform/source/printf.c:177 (discriminator 1)
800004e2:	992a                	add	s2,s2,a0
D:\temp\K1921VG015\proj\Run_leds__2\Debug/../platform/source/printf.c:178
            pStr++;
800004e4:	0405                	addi	s0,s0,1
800004e6:	bf95                	j	8000045a <PutSignedInt+0x44>

800004e8 <PutHexa>:
PutHexa():
D:\temp\K1921VG015\proj\Run_leds__2\Debug/../platform/source/printf.c:207
    char *pStr,
    char fill,
    signed int width,
    unsigned char maj,
    unsigned int value)
{
800004e8:	1101                	addi	sp,sp,-32
800004ea:	ce06                	sw	ra,28(sp)
800004ec:	cc22                	sw	s0,24(sp)
800004ee:	ca26                	sw	s1,20(sp)
800004f0:	c84a                	sw	s2,16(sp)
800004f2:	c64e                	sw	s3,12(sp)
800004f4:	c452                	sw	s4,8(sp)
800004f6:	c256                	sw	s5,4(sp)
800004f8:	842a                	mv	s0,a0
800004fa:	89ae                	mv	s3,a1
800004fc:	8ab6                	mv	s5,a3
800004fe:	8a3a                	mv	s4,a4
D:\temp\K1921VG015\proj\Run_leds__2\Debug/../platform/source/printf.c:211
    signed int num = 0;

    /* Decrement width */
    width--;
80000500:	fff60493          	addi	s1,a2,-1
D:\temp\K1921VG015\proj\Run_leds__2\Debug/../platform/source/printf.c:214

    /* Recursively output upper digits */
    if ((value >> 4) > 0) {
80000504:	8311                	srli	a4,a4,0x4
80000506:	e319                	bnez	a4,8000050c <PutHexa+0x24>
D:\temp\K1921VG015\proj\Run_leds__2\Debug/../platform/source/printf.c:208
    signed int num = 0;
80000508:	4901                	li	s2,0
8000050a:	a821                	j	80000522 <PutHexa+0x3a>
D:\temp\K1921VG015\proj\Run_leds__2\Debug/../platform/source/printf.c:216

        num += PutHexa(pStr, fill, width, maj, value >> 4);
8000050c:	8626                	mv	a2,s1
8000050e:	3fe9                	jal	800004e8 <PutHexa>
80000510:	892a                	mv	s2,a0
D:\temp\K1921VG015\proj\Run_leds__2\Debug/../platform/source/printf.c:217
        pStr += num;
80000512:	942a                	add	s0,s0,a0
80000514:	a809                	j	80000526 <PutHexa+0x3e>
D:\temp\K1921VG015\proj\Run_leds__2\Debug/../platform/source/printf.c:224
    /* Write filler chars */
    else {

        while (width > 0) {

            PutChar(pStr, fill);
80000516:	85ce                	mv	a1,s3
80000518:	8522                	mv	a0,s0
8000051a:	3da9                	jal	80000374 <PutChar>
D:\temp\K1921VG015\proj\Run_leds__2\Debug/../platform/source/printf.c:225
            pStr++;
8000051c:	0405                	addi	s0,s0,1
D:\temp\K1921VG015\proj\Run_leds__2\Debug/../platform/source/printf.c:226
            num++;
8000051e:	0905                	addi	s2,s2,1
D:\temp\K1921VG015\proj\Run_leds__2\Debug/../platform/source/printf.c:227
            width--;
80000520:	14fd                	addi	s1,s1,-1
D:\temp\K1921VG015\proj\Run_leds__2\Debug/../platform/source/printf.c:222
        while (width > 0) {
80000522:	fe904ae3          	bgtz	s1,80000516 <PutHexa+0x2e>
D:\temp\K1921VG015\proj\Run_leds__2\Debug/../platform/source/printf.c:232
        }
    }

    /* Write current digit */
    if ((value & 0xF) < 10) {
80000526:	00fa7793          	andi	a5,s4,15
8000052a:	4725                	li	a4,9
8000052c:	02f77563          	bgeu	a4,a5,80000556 <PutHexa+0x6e>
D:\temp\K1921VG015\proj\Run_leds__2\Debug/../platform/source/printf.c:236

        PutChar(pStr, (value & 0xF) + '0');
    }
    else if (maj) {
80000530:	020a8863          	beqz	s5,80000560 <PutHexa+0x78>
D:\temp\K1921VG015\proj\Run_leds__2\Debug/../platform/source/printf.c:238

        PutChar(pStr, (value & 0xF) - 10 + 'A');
80000534:	00fa7593          	andi	a1,s4,15
80000538:	03758593          	addi	a1,a1,55
8000053c:	8522                	mv	a0,s0
8000053e:	3d1d                	jal	80000374 <PutChar>
D:\temp\K1921VG015\proj\Run_leds__2\Debug/../platform/source/printf.c:247
        PutChar(pStr, (value & 0xF) - 10 + 'a');
    }
    num++;

    return num;
}
80000540:	00190513          	addi	a0,s2,1
80000544:	40f2                	lw	ra,28(sp)
80000546:	4462                	lw	s0,24(sp)
80000548:	44d2                	lw	s1,20(sp)
8000054a:	4942                	lw	s2,16(sp)
8000054c:	49b2                	lw	s3,12(sp)
8000054e:	4a22                	lw	s4,8(sp)
80000550:	4a92                	lw	s5,4(sp)
80000552:	6105                	addi	sp,sp,32
80000554:	8082                	ret
D:\temp\K1921VG015\proj\Run_leds__2\Debug/../platform/source/printf.c:234
        PutChar(pStr, (value & 0xF) + '0');
80000556:	03078593          	addi	a1,a5,48
8000055a:	8522                	mv	a0,s0
8000055c:	3d21                	jal	80000374 <PutChar>
8000055e:	b7cd                	j	80000540 <PutHexa+0x58>
D:\temp\K1921VG015\proj\Run_leds__2\Debug/../platform/source/printf.c:242
        PutChar(pStr, (value & 0xF) - 10 + 'a');
80000560:	00fa7593          	andi	a1,s4,15
80000564:	05758593          	addi	a1,a1,87
80000568:	05e2                	slli	a1,a1,0x18
8000056a:	85e1                	srai	a1,a1,0x18
8000056c:	8522                	mv	a0,s0
8000056e:	3519                	jal	80000374 <PutChar>
80000570:	bfc1                	j	80000540 <PutHexa+0x58>

80000572 <vsnprintf>:
vsnprintf():
D:\temp\K1921VG015\proj\Run_leds__2\Debug/../platform/source/printf.c:266
 * @param ap      Argument list.
 *
 * @return  The number of characters written.
 */
signed int vsnprintf(char *pStr, size_t length, const char *pFormat, va_list ap)
{
80000572:	7179                	addi	sp,sp,-48
80000574:	d606                	sw	ra,44(sp)
80000576:	d226                	sw	s1,36(sp)
80000578:	d04a                	sw	s2,32(sp)
8000057a:	ce4e                	sw	s3,28(sp)
8000057c:	892a                	mv	s2,a0
8000057e:	89ae                	mv	s3,a1
80000580:	c636                	sw	a3,12(sp)
D:\temp\K1921VG015\proj\Run_leds__2\Debug/../platform/source/printf.c:273
    unsigned char width;
    signed int    num = 0;
    signed int    size = 0;

    /* Clear the string */
    if (pStr) {
80000582:	c119                	beqz	a0,80000588 <vsnprintf+0x16>
D:\temp\K1921VG015\proj\Run_leds__2\Debug/../platform/source/printf.c:275

        *pStr = 0;
80000584:	00050023          	sb	zero,0(a0)
D:\temp\K1921VG015\proj\Run_leds__2\Debug/../platform/source/printf.c:290
            size++;
        }
        /* Escaped '%' */
        else if (*(pFormat+1) == '%') {

            *pStr++ = '%';
80000588:	4481                	li	s1,0
8000058a:	a821                	j	800005a2 <vsnprintf+0x30>
D:\temp\K1921VG015\proj\Run_leds__2\Debug/../platform/source/printf.c:288
        else if (*(pFormat+1) == '%') {
8000058c:	00160583          	lb	a1,1(a2)
80000590:	02500793          	li	a5,37
80000594:	02f59763          	bne	a1,a5,800005c2 <vsnprintf+0x50>
D:\temp\K1921VG015\proj\Run_leds__2\Debug/../platform/source/printf.c:290
            *pStr++ = '%';
80000598:	00f90023          	sb	a5,0(s2)
D:\temp\K1921VG015\proj\Run_leds__2\Debug/../platform/source/printf.c:291
            pFormat += 2;
8000059c:	0609                	addi	a2,a2,2
D:\temp\K1921VG015\proj\Run_leds__2\Debug/../platform/source/printf.c:292
            size++;
8000059e:	0485                	addi	s1,s1,1
D:\temp\K1921VG015\proj\Run_leds__2\Debug/../platform/source/printf.c:290
            *pStr++ = '%';
800005a0:	0905                	addi	s2,s2,1
D:\temp\K1921VG015\proj\Run_leds__2\Debug/../platform/source/printf.c:279
    while (*pFormat != 0 && size < length) {
800005a2:	00060783          	lb	a5,0(a2)
800005a6:	10078763          	beqz	a5,800006b4 <vsnprintf+0x142>
D:\temp\K1921VG015\proj\Run_leds__2\Debug/../platform/source/printf.c:279 (discriminator 1)
800005aa:	1134f563          	bgeu	s1,s3,800006b4 <vsnprintf+0x142>
D:\temp\K1921VG015\proj\Run_leds__2\Debug/../platform/source/printf.c:282
        if (*pFormat != '%') {
800005ae:	02500713          	li	a4,37
800005b2:	fce78de3          	beq	a5,a4,8000058c <vsnprintf+0x1a>
D:\temp\K1921VG015\proj\Run_leds__2\Debug/../platform/source/printf.c:284
            *pStr++ = *pFormat++;
800005b6:	0605                	addi	a2,a2,1
800005b8:	00f90023          	sb	a5,0(s2)
D:\temp\K1921VG015\proj\Run_leds__2\Debug/../platform/source/printf.c:285
            size++;
800005bc:	0485                	addi	s1,s1,1
D:\temp\K1921VG015\proj\Run_leds__2\Debug/../platform/source/printf.c:284
            *pStr++ = *pFormat++;
800005be:	0905                	addi	s2,s2,1
800005c0:	b7cd                	j	800005a2 <vsnprintf+0x30>
800005c2:	d422                	sw	s0,40(sp)
D:\temp\K1921VG015\proj\Run_leds__2\Debug/../platform/source/printf.c:299
        /* Token delimiter */
        else {

            fill = ' ';
            width = 0;
            pFormat++;
800005c4:	00160413          	addi	s0,a2,1
D:\temp\K1921VG015\proj\Run_leds__2\Debug/../platform/source/printf.c:302

            /* Parse filler */
            if (*pFormat == '0') {
800005c8:	03000793          	li	a5,48
800005cc:	00f58663          	beq	a1,a5,800005d8 <vsnprintf+0x66>
D:\temp\K1921VG015\proj\Run_leds__2\Debug/../platform/source/printf.c:297
            fill = ' ';
800005d0:	02000593          	li	a1,32
800005d4:	4601                	li	a2,0
800005d6:	a005                	j	800005f6 <vsnprintf+0x84>
D:\temp\K1921VG015\proj\Run_leds__2\Debug/../platform/source/printf.c:305

                fill = '0';
                pFormat++;
800005d8:	00260413          	addi	s0,a2,2
800005dc:	bfe5                	j	800005d4 <vsnprintf+0x62>
D:\temp\K1921VG015\proj\Run_leds__2\Debug/../platform/source/printf.c:311
            }

            /* Parse width */
            while ((*pFormat >= '0') && (*pFormat <= '9')) {

                width = (width*10) + *pFormat-'0';
800005de:	00261713          	slli	a4,a2,0x2
800005e2:	9732                	add	a4,a4,a2
800005e4:	0706                	slli	a4,a4,0x1
800005e6:	97ba                	add	a5,a5,a4
800005e8:	0ff7f793          	zext.b	a5,a5
800005ec:	fd078793          	addi	a5,a5,-48
800005f0:	0ff7f613          	zext.b	a2,a5
D:\temp\K1921VG015\proj\Run_leds__2\Debug/../platform/source/printf.c:312
                pFormat++;
800005f4:	0405                	addi	s0,s0,1
D:\temp\K1921VG015\proj\Run_leds__2\Debug/../platform/source/printf.c:309
            while ((*pFormat >= '0') && (*pFormat <= '9')) {
800005f6:	00040683          	lb	a3,0(s0)
800005fa:	0ff6f793          	zext.b	a5,a3
800005fe:	fd078713          	addi	a4,a5,-48
80000602:	0ff77713          	zext.b	a4,a4
80000606:	4525                	li	a0,9
80000608:	fce57be3          	bgeu	a0,a4,800005de <vsnprintf+0x6c>
D:\temp\K1921VG015\proj\Run_leds__2\Debug/../platform/source/printf.c:316
            }

            /* Check if there is enough space */
            if (size + width > length) {
8000060c:	009607b3          	add	a5,a2,s1
80000610:	00f9f963          	bgeu	s3,a5,80000622 <vsnprintf+0xb0>
D:\temp\K1921VG015\proj\Run_leds__2\Debug/../platform/source/printf.c:318

                width = length - size;
80000614:	0ff9f613          	zext.b	a2,s3
80000618:	0ff4f793          	zext.b	a5,s1
8000061c:	8e1d                	sub	a2,a2,a5
8000061e:	0ff67613          	zext.b	a2,a2
D:\temp\K1921VG015\proj\Run_leds__2\Debug/../platform/source/printf.c:322
            }

            /* Parse type */
            switch (*pFormat) {
80000622:	fa868693          	addi	a3,a3,-88
80000626:	0ff6f713          	zext.b	a4,a3
8000062a:	02000793          	li	a5,32
8000062e:	08e7ec63          	bltu	a5,a4,800006c6 <vsnprintf+0x154>
80000632:	00271693          	slli	a3,a4,0x2
80000636:	800027b7          	lui	a5,0x80002
8000063a:	13878793          	addi	a5,a5,312 # 80002138 <__clz_tab+0x100>
8000063e:	96be                	add	a3,a3,a5
80000640:	429c                	lw	a5,0(a3)
80000642:	8782                	jr	a5
D:\temp\K1921VG015\proj\Run_leds__2\Debug/../platform/source/printf.c:324
            case 'd':
            case 'i': num = PutSignedInt(pStr, fill, width, va_arg(ap, signed int)); break;
80000644:	47b2                	lw	a5,12(sp)
80000646:	00478713          	addi	a4,a5,4
8000064a:	c63a                	sw	a4,12(sp)
D:\temp\K1921VG015\proj\Run_leds__2\Debug/../platform/source/printf.c:324 (discriminator 1)
8000064c:	4394                	lw	a3,0(a5)
8000064e:	854a                	mv	a0,s2
80000650:	33d9                	jal	80000416 <PutSignedInt>
D:\temp\K1921VG015\proj\Run_leds__2\Debug/../platform/source/printf.c:334
            case 'c': num = PutChar(pStr, va_arg(ap, unsigned int)); break;
            default:
                return EOF;
            }

            pFormat++;
80000652:	00140613          	addi	a2,s0,1
D:\temp\K1921VG015\proj\Run_leds__2\Debug/../platform/source/printf.c:335
            pStr += num;
80000656:	992a                	add	s2,s2,a0
D:\temp\K1921VG015\proj\Run_leds__2\Debug/../platform/source/printf.c:336
            size += num;
80000658:	94aa                	add	s1,s1,a0
8000065a:	5422                	lw	s0,40(sp)
8000065c:	b799                	j	800005a2 <vsnprintf+0x30>
D:\temp\K1921VG015\proj\Run_leds__2\Debug/../platform/source/printf.c:325
            case 'u': num = PutUnsignedInt(pStr, fill, width, va_arg(ap, unsigned int)); break;
8000065e:	47b2                	lw	a5,12(sp)
80000660:	00478713          	addi	a4,a5,4
80000664:	c63a                	sw	a4,12(sp)
D:\temp\K1921VG015\proj\Run_leds__2\Debug/../platform/source/printf.c:325 (discriminator 1)
80000666:	4394                	lw	a3,0(a5)
80000668:	854a                	mv	a0,s2
8000066a:	332d                	jal	80000394 <PutUnsignedInt>
D:\temp\K1921VG015\proj\Run_leds__2\Debug/../platform/source/printf.c:325
8000066c:	b7dd                	j	80000652 <vsnprintf+0xe0>
D:\temp\K1921VG015\proj\Run_leds__2\Debug/../platform/source/printf.c:326
            case 'x': num = PutHexa(pStr, fill, width, 0, va_arg(ap, unsigned int)); break;
8000066e:	47b2                	lw	a5,12(sp)
80000670:	00478713          	addi	a4,a5,4
80000674:	c63a                	sw	a4,12(sp)
D:\temp\K1921VG015\proj\Run_leds__2\Debug/../platform/source/printf.c:326 (discriminator 1)
80000676:	4398                	lw	a4,0(a5)
80000678:	4681                	li	a3,0
8000067a:	854a                	mv	a0,s2
8000067c:	35b5                	jal	800004e8 <PutHexa>
D:\temp\K1921VG015\proj\Run_leds__2\Debug/../platform/source/printf.c:326
8000067e:	bfd1                	j	80000652 <vsnprintf+0xe0>
D:\temp\K1921VG015\proj\Run_leds__2\Debug/../platform/source/printf.c:327
            case 'X': num = PutHexa(pStr, fill, width, 1, va_arg(ap, unsigned int)); break;
80000680:	47b2                	lw	a5,12(sp)
80000682:	00478713          	addi	a4,a5,4
80000686:	c63a                	sw	a4,12(sp)
D:\temp\K1921VG015\proj\Run_leds__2\Debug/../platform/source/printf.c:327 (discriminator 1)
80000688:	4398                	lw	a4,0(a5)
8000068a:	4685                	li	a3,1
8000068c:	854a                	mv	a0,s2
8000068e:	3da9                	jal	800004e8 <PutHexa>
D:\temp\K1921VG015\proj\Run_leds__2\Debug/../platform/source/printf.c:327
80000690:	b7c9                	j	80000652 <vsnprintf+0xe0>
D:\temp\K1921VG015\proj\Run_leds__2\Debug/../platform/source/printf.c:328
            case 's': num = PutString(pStr, va_arg(ap, char *)); break;
80000692:	47b2                	lw	a5,12(sp)
80000694:	00478713          	addi	a4,a5,4
80000698:	c63a                	sw	a4,12(sp)
D:\temp\K1921VG015\proj\Run_leds__2\Debug/../platform/source/printf.c:328 (discriminator 1)
8000069a:	438c                	lw	a1,0(a5)
8000069c:	854a                	mv	a0,s2
8000069e:	39f9                	jal	8000037c <PutString>
D:\temp\K1921VG015\proj\Run_leds__2\Debug/../platform/source/printf.c:328
800006a0:	bf4d                	j	80000652 <vsnprintf+0xe0>
D:\temp\K1921VG015\proj\Run_leds__2\Debug/../platform/source/printf.c:329
            case 'c': num = PutChar(pStr, va_arg(ap, unsigned int)); break;
800006a2:	47b2                	lw	a5,12(sp)
800006a4:	00478713          	addi	a4,a5,4
800006a8:	c63a                	sw	a4,12(sp)
D:\temp\K1921VG015\proj\Run_leds__2\Debug/../platform/source/printf.c:329 (discriminator 1)
800006aa:	00078583          	lb	a1,0(a5)
800006ae:	854a                	mv	a0,s2
800006b0:	31d1                	jal	80000374 <PutChar>
D:\temp\K1921VG015\proj\Run_leds__2\Debug/../platform/source/printf.c:329
800006b2:	b745                	j	80000652 <vsnprintf+0xe0>
D:\temp\K1921VG015\proj\Run_leds__2\Debug/../platform/source/printf.c:341
        }
    }

    /* NULL-terminated (final \0 is not counted) */
    if (size < length) {
800006b4:	0134f563          	bgeu	s1,s3,800006be <vsnprintf+0x14c>
D:\temp\K1921VG015\proj\Run_leds__2\Debug/../platform/source/printf.c:343

        *pStr = 0;
800006b8:	00090023          	sb	zero,0(s2)
800006bc:	a039                	j	800006ca <vsnprintf+0x158>
D:\temp\K1921VG015\proj\Run_leds__2\Debug/../platform/source/printf.c:347
    }
    else {

        *(--pStr) = 0;
800006be:	fe090fa3          	sb	zero,-1(s2)
D:\temp\K1921VG015\proj\Run_leds__2\Debug/../platform/source/printf.c:348
        size--;
800006c2:	14fd                	addi	s1,s1,-1
800006c4:	a019                	j	800006ca <vsnprintf+0x158>
D:\temp\K1921VG015\proj\Run_leds__2\Debug/../platform/source/printf.c:322
            switch (*pFormat) {
800006c6:	54fd                	li	s1,-1
800006c8:	5422                	lw	s0,40(sp)
D:\temp\K1921VG015\proj\Run_leds__2\Debug/../platform/source/printf.c:352
    }

    return size;
}
800006ca:	8526                	mv	a0,s1
800006cc:	50b2                	lw	ra,44(sp)
800006ce:	5492                	lw	s1,36(sp)
800006d0:	5902                	lw	s2,32(sp)
800006d2:	49f2                	lw	s3,28(sp)
800006d4:	6145                	addi	sp,sp,48
800006d6:	8082                	ret

800006d8 <vsprintf>:
vsprintf():
D:\temp\K1921VG015\proj\Run_leds__2\Debug/../platform/source/printf.c:391
 * @param ap       Argument list.
 *
 * @return  The number of characters written.
 */
signed int vsprintf(char *pString, const char *pFormat, va_list ap)
{
800006d8:	1141                	addi	sp,sp,-16
800006da:	c606                	sw	ra,12(sp)
800006dc:	86b2                	mv	a3,a2
D:\temp\K1921VG015\proj\Run_leds__2\Debug/../platform/source/printf.c:392
   return vsnprintf(pString, MAX_STRING_SIZE, pFormat, ap);
800006de:	862e                	mv	a2,a1
800006e0:	06400593          	li	a1,100
800006e4:	3579                	jal	80000572 <vsnprintf>
D:\temp\K1921VG015\proj\Run_leds__2\Debug/../platform/source/printf.c:393
}
800006e6:	40b2                	lw	ra,12(sp)
800006e8:	0141                	addi	sp,sp,16
800006ea:	8082                	ret

800006ec <SystemCoreClockUpdate>:
SystemCoreClockUpdate():
D:\temp\K1921VG015\proj\Run_leds__2\Debug/../platform/source/system_k1921vg015.c:37
//-- Functions -----------------------------------------------------------------
void SystemCoreClockUpdate(void)
{
    uint32_t current_sysclk;
    uint32_t pll_refclk, pll_refdiv, pll_frac, pll_fbdiv, pll_pd0a, pll_pd0b, pll_pd1a, pll_pd1b = 1;
    current_sysclk = RCU->CLKSTAT_bit.SRC;
800006ec:	3000e737          	lui	a4,0x3000e
800006f0:	5f48                	lw	a0,60(a4)
800006f2:	890d                	andi	a0,a0,3
D:\temp\K1921VG015\proj\Run_leds__2\Debug/../platform/source/system_k1921vg015.c:39
  	pll_refclk = HSECLK_VAL;
   	pll_fbdiv = RCU->PLLSYSCFG2_bit.FBDIV;
800006f4:	4f2c                	lw	a1,88(a4)
800006f6:	6785                	lui	a5,0x1
800006f8:	17fd                	addi	a5,a5,-1 # fff <plic.c.21d8f78f+0x1a8>
800006fa:	8dfd                	and	a1,a1,a5
800006fc:	05c2                	slli	a1,a1,0x10
800006fe:	81c1                	srli	a1,a1,0x10
D:\temp\K1921VG015\proj\Run_leds__2\Debug/../platform/source/system_k1921vg015.c:40
   	pll_refdiv = RCU->PLLSYSCFG0_bit.REFDIV;
80000700:	05072883          	lw	a7,80(a4) # 3000e050 <retarget.c.918a4a7b+0x300041c4>
80000704:	0078d893          	srli	a7,a7,0x7
80000708:	03f8f893          	andi	a7,a7,63
D:\temp\K1921VG015\proj\Run_leds__2\Debug/../platform/source/system_k1921vg015.c:41
   	pll_pd0a = RCU->PLLSYSCFG0_bit.PD0A;
8000070c:	4b3c                	lw	a5,80(a4)
8000070e:	83b5                	srli	a5,a5,0xd
80000710:	8b9d                	andi	a5,a5,7
D:\temp\K1921VG015\proj\Run_leds__2\Debug/../platform/source/system_k1921vg015.c:42
   	pll_pd0b = RCU->PLLSYSCFG0_bit.PD0B;
80000712:	4b30                	lw	a2,80(a4)
80000714:	8241                	srli	a2,a2,0x10
80000716:	03f67613          	andi	a2,a2,63
D:\temp\K1921VG015\proj\Run_leds__2\Debug/../platform/source/system_k1921vg015.c:43
   	pll_pd1a = RCU->PLLSYSCFG0_bit.PD1A;
8000071a:	4b34                	lw	a3,80(a4)
8000071c:	82d9                	srli	a3,a3,0x16
8000071e:	8a9d                	andi	a3,a3,7
D:\temp\K1921VG015\proj\Run_leds__2\Debug/../platform/source/system_k1921vg015.c:44
   	pll_pd1b = RCU->PLLSYSCFG0_bit.PD1B;
80000720:	05072803          	lw	a6,80(a4)
80000724:	01985813          	srli	a6,a6,0x19
80000728:	03f87813          	andi	a6,a6,63
D:\temp\K1921VG015\proj\Run_leds__2\Debug/../platform/source/system_k1921vg015.c:45
   	if (RCU->PLLSYSCFG0_bit.DSMEN) pll_frac = RCU->PLLSYSCFG1_bit.FRAC;
8000072c:	4b38                	lw	a4,80(a4)
8000072e:	8311                	srli	a4,a4,0x4
80000730:	8b05                	andi	a4,a4,1
80000732:	c735                	beqz	a4,8000079e <SystemCoreClockUpdate+0xb2>
D:\temp\K1921VG015\proj\Run_leds__2\Debug/../platform/source/system_k1921vg015.c:45 (discriminator 1)
80000734:	3000e737          	lui	a4,0x3000e
80000738:	4b78                	lw	a4,84(a4)
8000073a:	01000337          	lui	t1,0x1000
8000073e:	137d                	addi	t1,t1,-1 # ffffff <retarget.c.918a4a7b+0xff6173>
80000740:	00677733          	and	a4,a4,t1
D:\temp\K1921VG015\proj\Run_leds__2\Debug/../platform/source/system_k1921vg015.c:48
   	else pll_frac = 0;

   	SystemPll0Clock = (pll_refclk * (pll_fbdiv+pll_frac/(1 << 24))) / (pll_refdiv * (1+pll_pd0a) * (1+pll_pd0b));
80000744:	8361                	srli	a4,a4,0x18
80000746:	972e                	add	a4,a4,a1
80000748:	00f425b7          	lui	a1,0xf42
8000074c:	40058593          	addi	a1,a1,1024 # f42400 <retarget.c.918a4a7b+0xf38574>
80000750:	02b70733          	mul	a4,a4,a1
80000754:	0785                	addi	a5,a5,1
80000756:	031787b3          	mul	a5,a5,a7
8000075a:	0605                	addi	a2,a2,1
8000075c:	02c787b3          	mul	a5,a5,a2
80000760:	02f757b3          	divu	a5,a4,a5
80000764:	acf1a423          	sw	a5,-1336(gp) # 40000248 <SystemPll0Clock>
D:\temp\K1921VG015\proj\Run_leds__2\Debug/../platform/source/system_k1921vg015.c:49
   	SystemPll1Clock = (pll_refclk * (pll_fbdiv+pll_frac/(1 << 24))) / (pll_refdiv * (1+pll_pd1a) * (1+pll_pd1b));
80000768:	0685                	addi	a3,a3,1
8000076a:	031686b3          	mul	a3,a3,a7
8000076e:	00180613          	addi	a2,a6,1
80000772:	02c686b3          	mul	a3,a3,a2
80000776:	02d75733          	divu	a4,a4,a3
8000077a:	ace1a223          	sw	a4,-1340(gp) # 40000244 <SystemPll1Clock>
D:\temp\K1921VG015\proj\Run_leds__2\Debug/../platform/source/system_k1921vg015.c:50
    switch (current_sysclk) {
8000077e:	4709                	li	a4,2
80000780:	04e50163          	beq	a0,a4,800007c2 <SystemCoreClockUpdate+0xd6>
80000784:	02a76063          	bltu	a4,a0,800007a4 <SystemCoreClockUpdate+0xb8>
80000788:	c515                	beqz	a0,800007b4 <SystemCoreClockUpdate+0xc8>
8000078a:	4785                	li	a5,1
8000078c:	00f51b63          	bne	a0,a5,800007a2 <SystemCoreClockUpdate+0xb6>
D:\temp\K1921VG015\proj\Run_leds__2\Debug/../platform/source/system_k1921vg015.c:55
    case RCU_CLKSTAT_SRC_HSICLK:
        SystemCoreClock = HSICLK_VAL;
        break;
    case RCU_CLKSTAT_SRC_HSECLK:
        SystemCoreClock = HSECLK_VAL;
80000790:	00f427b7          	lui	a5,0xf42
80000794:	40078793          	addi	a5,a5,1024 # f42400 <retarget.c.918a4a7b+0xf38574>
80000798:	acf1a023          	sw	a5,-1344(gp) # 40000240 <SystemCoreClock>
D:\temp\K1921VG015\proj\Run_leds__2\Debug/../platform/source/system_k1921vg015.c:56
        break;
8000079c:	8082                	ret
D:\temp\K1921VG015\proj\Run_leds__2\Debug/../platform/source/system_k1921vg015.c:46
   	else pll_frac = 0;
8000079e:	4701                	li	a4,0
800007a0:	b755                	j	80000744 <SystemCoreClockUpdate+0x58>
800007a2:	8082                	ret
D:\temp\K1921VG015\proj\Run_leds__2\Debug/../platform/source/system_k1921vg015.c:50
    switch (current_sysclk) {
800007a4:	478d                	li	a5,3
800007a6:	00f51663          	bne	a0,a5,800007b2 <SystemCoreClockUpdate+0xc6>
D:\temp\K1921VG015\proj\Run_leds__2\Debug/../platform/source/system_k1921vg015.c:61
    case RCU_CLKSTAT_SRC_SYSPLL0CLK:
    	SystemCoreClock = SystemPll0Clock;
    	break;
    case RCU_CLKSTAT_SRC_LSICLK:
    	SystemCoreClock = LSICLK_VAL;
800007aa:	6721                	lui	a4,0x8
800007ac:	ace1a023          	sw	a4,-1344(gp) # 40000240 <SystemCoreClock>
D:\temp\K1921VG015\proj\Run_leds__2\Debug/../platform/source/system_k1921vg015.c:65
        break;
    }

}
800007b0:	8082                	ret
800007b2:	8082                	ret
D:\temp\K1921VG015\proj\Run_leds__2\Debug/../platform/source/system_k1921vg015.c:52
        SystemCoreClock = HSICLK_VAL;
800007b4:	000f47b7          	lui	a5,0xf4
800007b8:	24078793          	addi	a5,a5,576 # f4240 <retarget.c.918a4a7b+0xea3b4>
800007bc:	acf1a023          	sw	a5,-1344(gp) # 40000240 <SystemCoreClock>
D:\temp\K1921VG015\proj\Run_leds__2\Debug/../platform/source/system_k1921vg015.c:53
        break;
800007c0:	8082                	ret
D:\temp\K1921VG015\proj\Run_leds__2\Debug/../platform/source/system_k1921vg015.c:58
    	SystemCoreClock = SystemPll0Clock;
800007c2:	acf1a023          	sw	a5,-1344(gp) # 40000240 <SystemCoreClock>
D:\temp\K1921VG015\proj\Run_leds__2\Debug/../platform/source/system_k1921vg015.c:59
    	break;
800007c6:	8082                	ret

800007c8 <ClkInit>:
ClkInit():
D:\temp\K1921VG015\proj\Run_leds__2\Debug/../platform/source/system_k1921vg015.c:75
    uint32_t sysclk_source;

    //clockout control
    #ifndef CKO_NONE
        //C7 clockout
        RCU->CGCFGAHB_bit.GPIOCEN = 1;
800007c8:	3000e7b7          	lui	a5,0x3000e
800007cc:	0007d703          	lhu	a4,0(a5) # 3000e000 <retarget.c.918a4a7b+0x30004174>
800007d0:	40076713          	ori	a4,a4,1024
800007d4:	00e79023          	sh	a4,0(a5)
D:\temp\K1921VG015\proj\Run_leds__2\Debug/../platform/source/system_k1921vg015.c:76
        RCU->RSTDISAHB_bit.GPIOCEN = 1;
800007d8:	0107d703          	lhu	a4,16(a5)
800007dc:	40076713          	ori	a4,a4,1024
800007e0:	00e79823          	sh	a4,16(a5)
D:\temp\K1921VG015\proj\Run_leds__2\Debug/../platform/source/system_k1921vg015.c:77
        GPIOC->ALTFUNCNUM_bit.PIN7 = 3;
800007e4:	28002737          	lui	a4,0x28002
800007e8:	5f54                	lw	a3,60(a4)
800007ea:	6631                	lui	a2,0xc
800007ec:	8ed1                	or	a3,a3,a2
800007ee:	df54                	sw	a3,60(a4)
D:\temp\K1921VG015\proj\Run_leds__2\Debug/../platform/source/system_k1921vg015.c:78
        GPIOC->ALTFUNCSET_bit.PIN7 = 1;
800007f0:	03475683          	lhu	a3,52(a4) # 28002034 <retarget.c.918a4a7b+0x27ff81a8>
800007f4:	0806e693          	ori	a3,a3,128
800007f8:	02d71a23          	sh	a3,52(a4)
D:\temp\K1921VG015\proj\Run_leds__2\Debug/../platform/source/system_k1921vg015.c:92
        RCU->CLKOUTCFG = (RCU_CLKOUTCFG_CLKSEL_HSE << RCU_CLKOUTCFG_CLKSEL_Pos) |
				  	  	  (1 << RCU_CLKOUTCFG_DIVN_Pos) |
						  (0 << RCU_CLKOUTCFG_DIVEN_Pos) |
						  RCU_CLKOUTCFG_RSTDIS_Msk | RCU_CLKOUTCFG_CLKEN_Msk; //CKO = HSECLK
    #elif defined CKO_PLL0
        RCU->CLKOUTCFG = (RCU_CLKOUTCFG_CLKSEL_PLL0 << RCU_CLKOUTCFG_CLKSEL_Pos) |
800007fc:	6745                	lui	a4,0x11
800007fe:	12170713          	addi	a4,a4,289 # 11121 <retarget.c.918a4a7b+0x7295>
80000802:	0ae7ae23          	sw	a4,188(a5)
D:\temp\K1921VG015\proj\Run_leds__2\Debug/../platform/source/system_k1921vg015.c:108
//select system clock
#ifdef SYSCLK_PLL
	//PLLCLK = REFCLK * (FBDIV+FRAC/2^24) / (REFDIV*(1+PD0A)*(1+PD0B))
	
	//select HSE as source system clock while config PLL
	RCU->SYSCLKCFG = (RCU_SYSCLKCFG_SRC_HSECLK << RCU_SYSCLKCFG_SRC_Pos);
80000806:	4705                	li	a4,1
80000808:	db98                	sw	a4,48(a5)
D:\temp\K1921VG015\proj\Run_leds__2\Debug/../platform/source/system_k1921vg015.c:110
    // Wait switching done
    timeout_counter = 0;
8000080a:	4681                	li	a3,0
D:\temp\K1921VG015\proj\Run_leds__2\Debug/../platform/source/system_k1921vg015.c:111
    while ((RCU->CLKSTAT_bit.SRC != RCU->SYSCLKCFG_bit.SRC) && (timeout_counter < 100)){ //SYSCLK_SWITCH_TIMEOUT))
8000080c:	a011                	j	80000810 <ClkInit+0x48>
D:\temp\K1921VG015\proj\Run_leds__2\Debug/../platform/source/system_k1921vg015.c:112
        timeout_counter++;
8000080e:	0685                	addi	a3,a3,1
D:\temp\K1921VG015\proj\Run_leds__2\Debug/../platform/source/system_k1921vg015.c:111
    while ((RCU->CLKSTAT_bit.SRC != RCU->SYSCLKCFG_bit.SRC) && (timeout_counter < 100)){ //SYSCLK_SWITCH_TIMEOUT))
80000810:	3000e7b7          	lui	a5,0x3000e
80000814:	5fd8                	lw	a4,60(a5)
80000816:	8b0d                	andi	a4,a4,3
80000818:	5b9c                	lw	a5,48(a5)
8000081a:	8b8d                	andi	a5,a5,3
8000081c:	00f70663          	beq	a4,a5,80000828 <ClkInit+0x60>
D:\temp\K1921VG015\proj\Run_leds__2\Debug/../platform/source/system_k1921vg015.c:111 (discriminator 1)
80000820:	06300793          	li	a5,99
80000824:	fed7f5e3          	bgeu	a5,a3,8000080e <ClkInit+0x46>
D:\temp\K1921VG015\proj\Run_leds__2\Debug/../platform/source/system_k1921vg015.c:147
	RCU->PLLSYSCFG1 = 0;          //FRAC = 0					 
	RCU->PLLSYSCFG2 = 100;         //FBDIV
#elif (HSECLK_VAL == 16000000)
// Fout0 = 50 000 000 Hz
// Fout1 = 12 500 000 Hz
	RCU->PLLSYSCFG0 =( 7 << RCU_PLLSYSCFG0_PD1B_Pos) |  //PD1B
80000828:	3000e7b7          	lui	a5,0x3000e
8000082c:	0fc16737          	lui	a4,0xfc16
80000830:	10770713          	addi	a4,a4,263 # fc16107 <retarget.c.918a4a7b+0xfc0c27b>
80000834:	cbb8                	sw	a4,80(a5)
D:\temp\K1921VG015\proj\Run_leds__2\Debug/../platform/source/system_k1921vg015.c:157
					 ( 0 << RCU_PLLSYSCFG0_FOUTEN_Pos)    |  //fouten
					 ( 0 << RCU_PLLSYSCFG0_DSMEN_Pos)     |  //dsmen
					 ( 0 << RCU_PLLSYSCFG0_DACEN_Pos)     |  //dacen
					 ( 3 << RCU_PLLSYSCFG0_BYP_Pos)       |  //bypass
					 ( 1 << RCU_PLLSYSCFG0_PLLEN_Pos);       //en
	RCU->PLLSYSCFG1 = 0;          //FRAC = 0					 
80000836:	0407aa23          	sw	zero,84(a5) # 3000e054 <retarget.c.918a4a7b+0x300041c8>
D:\temp\K1921VG015\proj\Run_leds__2\Debug/../platform/source/system_k1921vg015.c:158
	RCU->PLLSYSCFG2 = 50;         //FBDIV
8000083a:	03200713          	li	a4,50
8000083e:	cfb8                	sw	a4,88(a5)
D:\temp\K1921VG015\proj\Run_leds__2\Debug/../platform/source/system_k1921vg015.c:192
	RCU->PLLSYSCFG1 = 0;          //FRAC = 0					 
	RCU->PLLSYSCFG2 = 65;         //FBDIV
#else
#error "Please define HSECLK_VAL with correct values!"
#endif
	RCU->PLLSYSCFG0_bit.FOUTEN = 1; 	// Fout0 Enable
80000840:	4bb8                	lw	a4,80(a5)
80000842:	f9f77713          	andi	a4,a4,-97
80000846:	02076713          	ori	a4,a4,32
8000084a:	cbb8                	sw	a4,80(a5)
D:\temp\K1921VG015\proj\Run_leds__2\Debug/../platform/source/system_k1921vg015.c:193
	timeout_counter = 1000;
8000084c:	3e800793          	li	a5,1000
D:\temp\K1921VG015\proj\Run_leds__2\Debug/../platform/source/system_k1921vg015.c:194
	while(timeout_counter) timeout_counter--;
80000850:	a011                	j	80000854 <ClkInit+0x8c>
D:\temp\K1921VG015\proj\Run_leds__2\Debug/../platform/source/system_k1921vg015.c:194 (discriminator 2)
80000852:	17fd                	addi	a5,a5,-1
D:\temp\K1921VG015\proj\Run_leds__2\Debug/../platform/source/system_k1921vg015.c:194 (discriminator 1)
80000854:	fffd                	bnez	a5,80000852 <ClkInit+0x8a>
D:\temp\K1921VG015\proj\Run_leds__2\Debug/../platform/source/system_k1921vg015.c:195 (discriminator 1)
	while((RCU->PLLSYSSTAT_bit.LOCK) != 1)
80000856:	3000e737          	lui	a4,0x3000e
8000085a:	5338                	lw	a4,96(a4)
8000085c:	8b05                	andi	a4,a4,1
8000085e:	df65                	beqz	a4,80000856 <ClkInit+0x8e>
D:\temp\K1921VG015\proj\Run_leds__2\Debug/../platform/source/system_k1921vg015.c:197
	{}; 								// wait lock signal
	RCU->PLLSYSCFG0_bit.BYP = 2; 		// Bypass for Fout1
80000860:	3000e637          	lui	a2,0x3000e
80000864:	4a38                	lw	a4,80(a2)
80000866:	9b65                	andi	a4,a4,-7
80000868:	00476713          	ori	a4,a4,4
8000086c:	ca38                	sw	a4,80(a2)
D:\temp\K1921VG015\proj\Run_leds__2\Debug/../platform/source/system_k1921vg015.c:201
	//select PLL as source system clock
	sysclk_source = RCU_SYSCLKCFG_SRC_SYSPLL0CLK;
    // FLASH control settings
    FLASH->CTRL_bit.LAT = 3;
8000086e:	3000d6b7          	lui	a3,0x3000d
80000872:	46f8                	lw	a4,76(a3)
80000874:	fff105b7          	lui	a1,0xfff10
80000878:	15fd                	addi	a1,a1,-1 # fff0ffff <__data_source_start+0x7ff0ddd7>
8000087a:	8f6d                	and	a4,a4,a1
8000087c:	000305b7          	lui	a1,0x30
80000880:	8f4d                	or	a4,a4,a1
80000882:	c6f8                	sw	a4,76(a3)
D:\temp\K1921VG015\proj\Run_leds__2\Debug/../platform/source/system_k1921vg015.c:202
    FLASH->CTRL_bit.CEN = 1;
80000884:	46f8                	lw	a4,76(a3)
80000886:	00276713          	ori	a4,a4,2
8000088a:	c6f8                	sw	a4,76(a3)
D:\temp\K1921VG015\proj\Run_leds__2\Debug/../platform/source/system_k1921vg015.c:214
#else
#error "Please define SYSCLK source (SYSCLK_PLL | SYSCLK_HSE | SYSCLK_HSI | SYSCLK_LSI)!"
#endif

    //switch sysclk
    RCU->SYSCLKCFG = (sysclk_source << RCU_SYSCLKCFG_SRC_Pos);
8000088c:	4709                	li	a4,2
8000088e:	da18                	sw	a4,48(a2)
D:\temp\K1921VG015\proj\Run_leds__2\Debug/../platform/source/system_k1921vg015.c:217
    // Wait switching done
    timeout_counter = 0;
    while ((RCU->CLKSTAT_bit.SRC != RCU->SYSCLKCFG_bit.SRC) && (timeout_counter < 100)) //SYSCLK_SWITCH_TIMEOUT))
80000890:	3000e737          	lui	a4,0x3000e
80000894:	5f54                	lw	a3,60(a4)
80000896:	8a8d                	andi	a3,a3,3
80000898:	5b18                	lw	a4,48(a4)
8000089a:	8b0d                	andi	a4,a4,3
8000089c:	00e68863          	beq	a3,a4,800008ac <ClkInit+0xe4>
D:\temp\K1921VG015\proj\Run_leds__2\Debug/../platform/source/system_k1921vg015.c:217 (discriminator 1)
800008a0:	06300713          	li	a4,99
800008a4:	00f76463          	bltu	a4,a5,800008ac <ClkInit+0xe4>
D:\temp\K1921VG015\proj\Run_leds__2\Debug/../platform/source/system_k1921vg015.c:218
        timeout_counter++;
800008a8:	0785                	addi	a5,a5,1
800008aa:	b7dd                	j	80000890 <ClkInit+0xc8>
D:\temp\K1921VG015\proj\Run_leds__2\Debug/../platform/source/system_k1921vg015.c:223
/*    if (timeout_counter == SYSCLK_SWITCH_TIMEOUT) //SYSCLK failed to switch
        while (1) {
        };*/

}
800008ac:	8082                	ret

800008ae <InterruptEnable>:
InterruptEnable():
D:\temp\K1921VG015\proj\Run_leds__2\Debug/../platform/source/system_k1921vg015.c:226

void InterruptEnable()
{
800008ae:	1141                	addi	sp,sp,-16
800008b0:	c606                	sw	ra,12(sp)
D:\temp\K1921VG015\proj\Run_leds__2\Debug/../platform/source/system_k1921vg015.c:228
	//allow all interrupts in machine mode
	PLIC_SetThreshold (Plic_Mach_Target, 0); //allow all interrupts in machine mode
800008b2:	4581                	li	a1,0
800008b4:	4501                	li	a0,0
800008b6:	3449                	jal	80000338 <PLIC_SetThreshold>
D:\temp\K1921VG015\proj\Run_leds__2\Debug/../platform/source/system_k1921vg015.c:230
    // disable timer interrupt
    clear_csr(mie, MIE_MTIMER);
800008b8:	08000793          	li	a5,128
800008bc:	3047b7f3          	csrrc	a5,mie,a5
D:\temp\K1921VG015\proj\Run_leds__2\Debug/../platform/source/system_k1921vg015.c:232
    // enable machine external interrupt
    set_csr(mie, MIE_MEXTERNAL);
800008c0:	6785                	lui	a5,0x1
800008c2:	80078793          	addi	a5,a5,-2048 # 800 <STACK_SIZE>
800008c6:	3047a7f3          	csrrs	a5,mie,a5
D:\temp\K1921VG015\proj\Run_leds__2\Debug/../platform/source/system_k1921vg015.c:234
    // enable global interrupts
    set_csr(mstatus, MSTATUS_MIE);
800008ca:	300467f3          	csrrsi	a5,mstatus,8
D:\temp\K1921VG015\proj\Run_leds__2\Debug/../platform/source/system_k1921vg015.c:235
}
800008ce:	40b2                	lw	ra,12(sp)
800008d0:	0141                	addi	sp,sp,16
800008d2:	8082                	ret

800008d4 <SystemInit>:
SystemInit():
D:\temp\K1921VG015\proj\Run_leds__2\Debug/../platform/source/system_k1921vg015.c:248
    // disable global interrupts
    clear_csr(mstatus, MSTATUS_MIE);
}

void SystemInit(void)
{
800008d4:	1141                	addi	sp,sp,-16
800008d6:	c606                	sw	ra,12(sp)
D:\temp\K1921VG015\proj\Run_leds__2\Debug/../platform/source/system_k1921vg015.c:256
//	clear_csr(mie, MIE_MTIMER);
	// enable machine external interrupt
//	set_csr(mie, MIE_MEXTERNAL);
	// enable global interrupts
//	set_csr(mstatus, MSTATUS_MIE);
	ClkInit();
800008d8:	3dc5                	jal	800007c8 <ClkInit>
D:\temp\K1921VG015\proj\Run_leds__2\Debug/../platform/source/system_k1921vg015.c:257
}
800008da:	40b2                	lw	ra,12(sp)
800008dc:	0141                	addi	sp,sp,16
800008de:	8082                	ret

800008e0 <BSP_led_init>:
BSP_led_init():
D:\temp\K1921VG015\proj\Run_leds__2\Debug/../main.c:59
	}
}


void BSP_led_init() {
    RCU->CGCFGAHB_bit.GPIOAEN = 1;
800008e0:	3000e7b7          	lui	a5,0x3000e
800008e4:	0007d703          	lhu	a4,0(a5) # 3000e000 <retarget.c.918a4a7b+0x30004174>
800008e8:	10076713          	ori	a4,a4,256
800008ec:	00e79023          	sh	a4,0(a5)
D:\temp\K1921VG015\proj\Run_leds__2\Debug/../main.c:60
    RCU->RSTDISAHB_bit.GPIOAEN = 1;
800008f0:	0107d703          	lhu	a4,16(a5)
800008f4:	10076713          	ori	a4,a4,256
800008f8:	00e79823          	sh	a4,16(a5)
D:\temp\K1921VG015\proj\Run_leds__2\Debug/../main.c:63

    //  GPIOB  PWM 
    RCU->CGCFGAHB_bit.GPIOBEN = 1;
800008fc:	0007d703          	lhu	a4,0(a5)
80000900:	20076713          	ori	a4,a4,512
80000904:	00e79023          	sh	a4,0(a5)
D:\temp\K1921VG015\proj\Run_leds__2\Debug/../main.c:64
    RCU->RSTDISAHB_bit.GPIOBEN = 1;
80000908:	0107d703          	lhu	a4,16(a5)
8000090c:	20076713          	ori	a4,a4,512
80000910:	00e79823          	sh	a4,16(a5)
D:\temp\K1921VG015\proj\Run_leds__2\Debug/../main.c:65
    GPIOB->OUTENSET = PB0_MSK;
80000914:	280017b7          	lui	a5,0x28001
80000918:	4705                	li	a4,1
8000091a:	d7d8                	sw	a4,44(a5)
D:\temp\K1921VG015\proj\Run_leds__2\Debug/../main.c:66
    GPIOB->DATAOUTCLR = PB0_MSK;
8000091c:	c7d8                	sw	a4,12(a5)
D:\temp\K1921VG015\proj\Run_leds__2\Debug/../main.c:68

    GPIOA->OUTENSET = LEDS_MSK;
8000091e:	280007b7          	lui	a5,0x28000
80000922:	6741                	lui	a4,0x10
80000924:	f0070713          	addi	a4,a4,-256 # ff00 <retarget.c.918a4a7b+0x6074>
80000928:	d7d8                	sw	a4,44(a5)
D:\temp\K1921VG015\proj\Run_leds__2\Debug/../main.c:69
    GPIOA->DATAOUTCLR = LEDS_MSK;
8000092a:	c7d8                	sw	a4,12(a5)
D:\temp\K1921VG015\proj\Run_leds__2\Debug/../main.c:71

    GPIOA->OUTENCLR = PA7_MSK; //   
8000092c:	08000713          	li	a4,128
80000930:	db98                	sw	a4,48(a5)
D:\temp\K1921VG015\proj\Run_leds__2\Debug/../main.c:72
    GPIOA->PULLMODE &= ~(0b11 << (7 * 2));
80000932:	5398                	lw	a4,32(a5)
80000934:	76d1                	lui	a3,0xffff4
80000936:	16fd                	addi	a3,a3,-1 # ffff3fff <__data_source_start+0x7fff1dd7>
80000938:	8f75                	and	a4,a4,a3
8000093a:	d398                	sw	a4,32(a5)
D:\temp\K1921VG015\proj\Run_leds__2\Debug/../main.c:73
    GPIOA->PULLMODE |= (0b01 << (7 * 2)); //     
8000093c:	5398                	lw	a4,32(a5)
8000093e:	6691                	lui	a3,0x4
80000940:	8f55                	or	a4,a4,a3
80000942:	d398                	sw	a4,32(a5)
D:\temp\K1921VG015\proj\Run_leds__2\Debug/../main.c:75

    GPIOA->OUTENSET = PA5_MSK; //   PA5  
80000944:	02000713          	li	a4,32
80000948:	d7d8                	sw	a4,44(a5)
D:\temp\K1921VG015\proj\Run_leds__2\Debug/../main.c:76
}
8000094a:	8082                	ret

8000094c <adcsar_init>:
adcsar_init():
D:\temp\K1921VG015\proj\Run_leds__2\Debug/../main.c:82


void adcsar_init()
{
	//   ADCSAR
  PMUSYS->ADCPWRCFG_bit.LDOEN = 1;
8000094c:	3000f7b7          	lui	a5,0x3000f
80000950:	0107c703          	lbu	a4,16(a5) # 3000f010 <retarget.c.918a4a7b+0x30005184>
80000954:	00176713          	ori	a4,a4,1
80000958:	00e78823          	sb	a4,16(a5)
D:\temp\K1921VG015\proj\Run_leds__2\Debug/../main.c:83
  PMUSYS->ADCPWRCFG_bit.LVLDIS = 0;
8000095c:	0107c703          	lbu	a4,16(a5)
80000960:	9b75                	andi	a4,a4,-3
80000962:	00e78823          	sb	a4,16(a5)
D:\temp\K1921VG015\proj\Run_leds__2\Debug/../main.c:88

  // ADCSAR->ACTL_bit.ISEL = 0;

  //  ADCSAR
  RCU->ADCSARCLKCFG_bit.RSTDIS = 0;
80000966:	3000e7b7          	lui	a5,0x3000e
8000096a:	0b07a703          	lw	a4,176(a5) # 3000e0b0 <retarget.c.918a4a7b+0x30004224>
8000096e:	eff77713          	andi	a4,a4,-257
80000972:	0ae7a823          	sw	a4,176(a5)
D:\temp\K1921VG015\proj\Run_leds__2\Debug/../main.c:89
  RCU->RSTDISAPB_bit.ADCSAREN = 0;
80000976:	4f98                	lw	a4,24(a5)
80000978:	76c1                	lui	a3,0xffff0
8000097a:	16fd                	addi	a3,a3,-1 # fffeffff <__data_source_start+0x7ffeddd7>
8000097c:	8f75                	and	a4,a4,a3
8000097e:	cf98                	sw	a4,24(a5)
D:\temp\K1921VG015\proj\Run_leds__2\Debug/../main.c:92

  //   ADCSAR
  RCU->ADCSARCLKCFG_bit.CLKSEL = 1;
80000980:	0b07a703          	lw	a4,176(a5)
80000984:	fffd06b7          	lui	a3,0xfffd0
80000988:	16fd                	addi	a3,a3,-1 # fffcffff <__data_source_start+0x7ffcddd7>
8000098a:	8f75                	and	a4,a4,a3
8000098c:	66c1                	lui	a3,0x10
8000098e:	8f55                	or	a4,a4,a3
80000990:	0ae7a823          	sw	a4,176(a5)
D:\temp\K1921VG015\proj\Run_leds__2\Debug/../main.c:93
  RCU->ADCSARCLKCFG_bit.DIVEN = 0;
80000994:	0b07a703          	lw	a4,176(a5)
80000998:	fff00637          	lui	a2,0xfff00
8000099c:	167d                	addi	a2,a2,-1 # ffefffff <__data_source_start+0x7fefddd7>
8000099e:	8f71                	and	a4,a4,a2
800009a0:	0ae7a823          	sw	a4,176(a5)
D:\temp\K1921VG015\proj\Run_leds__2\Debug/../main.c:94
  RCU->ADCSARCLKCFG_bit.CLKEN = 1;
800009a4:	0b07a703          	lw	a4,176(a5)
800009a8:	00176713          	ori	a4,a4,1
800009ac:	0ae7a823          	sw	a4,176(a5)
D:\temp\K1921VG015\proj\Run_leds__2\Debug/../main.c:95
  RCU->ADCSARCLKCFG_bit.RSTDIS = 1;
800009b0:	0b07a703          	lw	a4,176(a5)
800009b4:	10076713          	ori	a4,a4,256
800009b8:	0ae7a823          	sw	a4,176(a5)
D:\temp\K1921VG015\proj\Run_leds__2\Debug/../main.c:98

  //     ADCSAR
  RCU->CGCFGAPB_bit.ADCSAREN = 1;
800009bc:	4798                	lw	a4,8(a5)
800009be:	8f55                	or	a4,a4,a3
800009c0:	c798                	sw	a4,8(a5)
D:\temp\K1921VG015\proj\Run_leds__2\Debug/../main.c:99
  RCU->RSTDISAPB_bit.ADCSAREN = 1;
800009c2:	4f98                	lw	a4,24(a5)
800009c4:	8f55                	or	a4,a4,a3
800009c6:	cf98                	sw	a4,24(a5)
D:\temp\K1921VG015\proj\Run_leds__2\Debug/../main.c:103

  //  ADCSAR
  //12    
  ADCSAR->ACTL_bit.SELRES = ADCSAR_ACTL_SELRES_12bit;
800009c8:	300107b7          	lui	a5,0x30010
800009cc:	5407a703          	lw	a4,1344(a5) # 30010540 <retarget.c.918a4a7b+0x300066b4>
800009d0:	03076713          	ori	a4,a4,48
800009d4:	54e7a023          	sw	a4,1344(a5)
D:\temp\K1921VG015\proj\Run_leds__2\Debug/../main.c:106
  //ADCSAR->ACTL = 0;
  // ADCSAR->ACTL |= (3 << 4);  //   
  ADCSAR->ACTL_bit.CALEN = 1;
800009d8:	5407a703          	lw	a4,1344(a5)
800009dc:	10076713          	ori	a4,a4,256
800009e0:	54e7a023          	sw	a4,1344(a5)
D:\temp\K1921VG015\proj\Run_leds__2\Debug/../main.c:107
  ADCSAR->ACTL_bit.ADCEN = 1;
800009e4:	5407a703          	lw	a4,1344(a5)
800009e8:	00176713          	ori	a4,a4,1
800009ec:	54e7a023          	sw	a4,1344(a5)
D:\temp\K1921VG015\proj\Run_leds__2\Debug/../main.c:111
  //ADCSAR->ACTL_bit.ISEL = 1;

  //  0: CH0 - CH7
  ADCSAR->EMUX_bit.EM0 = ADCSAR_EMUX_EM0_SwReq;
800009f0:	01c7c703          	lbu	a4,28(a5)
800009f4:	9b41                	andi	a4,a4,-16
800009f6:	00e78e23          	sb	a4,28(a5)
D:\temp\K1921VG015\proj\Run_leds__2\Debug/../main.c:113
  //ADCSAR->EMUX = 0x0F;
  ADCSAR->SEQ[0].SCCTL_bit.ICNT = 0;
800009fa:	06078323          	sb	zero,102(a5)
D:\temp\K1921VG015\proj\Run_leds__2\Debug/../main.c:114
  ADCSAR->SEQ[0].SCCTL_bit.RCNT = 0;
800009fe:	06078223          	sb	zero,100(a5)
D:\temp\K1921VG015\proj\Run_leds__2\Debug/../main.c:115
  ADCSAR->SEQ[0].SRTMR = 0x0;
80000a02:	0607a823          	sw	zero,112(a5)
D:\temp\K1921VG015\proj\Run_leds__2\Debug/../main.c:116
  ADCSAR->SEQ[0].SRQCTL_bit.QAVGVAL = ADCSAR_SEQ_SRQCTL_QAVGVAL_Disable;
80000a06:	0587d703          	lhu	a4,88(a5)
80000a0a:	76fd                	lui	a3,0xfffff
80000a0c:	1ff68693          	addi	a3,a3,511 # fffff1ff <__data_source_start+0x7fffcfd7>
80000a10:	8f75                	and	a4,a4,a3
80000a12:	04e79c23          	sh	a4,88(a5)
D:\temp\K1921VG015\proj\Run_leds__2\Debug/../main.c:117
  ADCSAR->SEQ[0].SRQCTL_bit.QAVGEN = 0;
80000a16:	0587d703          	lhu	a4,88(a5)
80000a1a:	eff77713          	andi	a4,a4,-257
80000a1e:	04e79c23          	sh	a4,88(a5)
D:\temp\K1921VG015\proj\Run_leds__2\Debug/../main.c:118
  ADCSAR->SEQ[0].SRQCTL_bit.RQMAX = 7;
80000a22:	0587d703          	lhu	a4,88(a5)
80000a26:	00776713          	ori	a4,a4,7
80000a2a:	04e79c23          	sh	a4,88(a5)
D:\temp\K1921VG015\proj\Run_leds__2\Debug/../main.c:119
  ADCSAR->SEQ[0].SCCTL_bit.RAVGEN = 0;
80000a2e:	53f8                	lw	a4,100(a5)
80000a30:	eff77713          	andi	a4,a4,-257
80000a34:	d3f8                	sw	a4,100(a5)
D:\temp\K1921VG015\proj\Run_leds__2\Debug/../main.c:120
  ADCSAR->SEQ[0].SRQSEL_bit.RQ0 = 0;
80000a36:	43b8                	lw	a4,64(a5)
80000a38:	9b41                	andi	a4,a4,-16
80000a3a:	c3b8                	sw	a4,64(a5)
D:\temp\K1921VG015\proj\Run_leds__2\Debug/../main.c:121
  ADCSAR->SEQ[0].SRQSEL_bit.RQ1 = 1;
80000a3c:	43b8                	lw	a4,64(a5)
80000a3e:	f0f77713          	andi	a4,a4,-241
80000a42:	01076713          	ori	a4,a4,16
80000a46:	c3b8                	sw	a4,64(a5)
D:\temp\K1921VG015\proj\Run_leds__2\Debug/../main.c:122
  ADCSAR->SEQ[0].SRQSEL_bit.RQ2 = 2;
80000a48:	43b8                	lw	a4,64(a5)
80000a4a:	76fd                	lui	a3,0xfffff
80000a4c:	0ff68693          	addi	a3,a3,255 # fffff0ff <__data_source_start+0x7fffced7>
80000a50:	8f75                	and	a4,a4,a3
80000a52:	20076713          	ori	a4,a4,512
80000a56:	c3b8                	sw	a4,64(a5)
D:\temp\K1921VG015\proj\Run_leds__2\Debug/../main.c:123
  ADCSAR->SEQ[0].SRQSEL_bit.RQ3 = 3;
80000a58:	43b8                	lw	a4,64(a5)
80000a5a:	76c5                	lui	a3,0xffff1
80000a5c:	16fd                	addi	a3,a3,-1 # ffff0fff <__data_source_start+0x7ffeedd7>
80000a5e:	8f75                	and	a4,a4,a3
80000a60:	668d                	lui	a3,0x3
80000a62:	8f55                	or	a4,a4,a3
80000a64:	c3b8                	sw	a4,64(a5)
D:\temp\K1921VG015\proj\Run_leds__2\Debug/../main.c:124
  ADCSAR->SEQ[0].SRQSEL_bit.RQ4 = 4;
80000a66:	43b8                	lw	a4,64(a5)
80000a68:	fff106b7          	lui	a3,0xfff10
80000a6c:	16fd                	addi	a3,a3,-1 # fff0ffff <__data_source_start+0x7ff0ddd7>
80000a6e:	8f75                	and	a4,a4,a3
80000a70:	000406b7          	lui	a3,0x40
80000a74:	8f55                	or	a4,a4,a3
80000a76:	c3b8                	sw	a4,64(a5)
D:\temp\K1921VG015\proj\Run_leds__2\Debug/../main.c:125
  ADCSAR->SEQ[0].SRQSEL_bit.RQ5 = 5;
80000a78:	43b8                	lw	a4,64(a5)
80000a7a:	ff1006b7          	lui	a3,0xff100
80000a7e:	16fd                	addi	a3,a3,-1 # ff0fffff <__data_source_start+0x7f0fddd7>
80000a80:	8f75                	and	a4,a4,a3
80000a82:	005006b7          	lui	a3,0x500
80000a86:	8f55                	or	a4,a4,a3
80000a88:	c3b8                	sw	a4,64(a5)
D:\temp\K1921VG015\proj\Run_leds__2\Debug/../main.c:126
  ADCSAR->SEQ[0].SRQSEL_bit.RQ6 = 6;
80000a8a:	43b8                	lw	a4,64(a5)
80000a8c:	f10006b7          	lui	a3,0xf1000
80000a90:	16fd                	addi	a3,a3,-1 # f0ffffff <__data_source_start+0x70ffddd7>
80000a92:	8f75                	and	a4,a4,a3
80000a94:	060006b7          	lui	a3,0x6000
80000a98:	8f55                	or	a4,a4,a3
80000a9a:	c3b8                	sw	a4,64(a5)
D:\temp\K1921VG015\proj\Run_leds__2\Debug/../main.c:127
  ADCSAR->SEQ[0].SRQSEL_bit.RQ7 = 7;
80000a9c:	43b8                	lw	a4,64(a5)
80000a9e:	100006b7          	lui	a3,0x10000
80000aa2:	16fd                	addi	a3,a3,-1 # fffffff <retarget.c.918a4a7b+0xfff6173>
80000aa4:	8f75                	and	a4,a4,a3
80000aa6:	700006b7          	lui	a3,0x70000
80000aaa:	8f55                	or	a4,a4,a3
80000aac:	c3b8                	sw	a4,64(a5)
D:\temp\K1921VG015\proj\Run_leds__2\Debug/../main.c:130

  // 
  ADCSAR->SEQSYNC = ADCSAR_SEQSYNC_SYNC0_Msk;
80000aae:	4705                	li	a4,1
80000ab0:	c3d8                	sw	a4,4(a5)
D:\temp\K1921VG015\proj\Run_leds__2\Debug/../main.c:131
  ADCSAR->SEQEN = ADCSAR_SEQEN_SEQEN0_Msk;
80000ab2:	c398                	sw	a4,0(a5)
D:\temp\K1921VG015\proj\Run_leds__2\Debug/../main.c:134 (discriminator 1)

  //    ,    
  while (!(ADCSAR->ACTL_bit.ADCRDY)) { };
80000ab4:	300107b7          	lui	a5,0x30010
80000ab8:	5407a783          	lw	a5,1344(a5) # 30010540 <retarget.c.918a4a7b+0x300066b4>
80000abc:	8385                	srli	a5,a5,0x1
80000abe:	8b85                	andi	a5,a5,1
80000ac0:	dbf5                	beqz	a5,80000ab4 <adcsar_init+0x168>
D:\temp\K1921VG015\proj\Run_leds__2\Debug/../main.c:135
}
80000ac2:	8082                	ret

80000ac4 <TMR32_init>:
TMR32_init():
D:\temp\K1921VG015\proj\Run_leds__2\Debug/../main.c:139


void TMR32_init(uint32_t period)
{
80000ac4:	1141                	addi	sp,sp,-16
80000ac6:	c606                	sw	ra,12(sp)
D:\temp\K1921VG015\proj\Run_leds__2\Debug/../main.c:140
	RCU->CGCFGAPB_bit.TMR32EN = 1;
80000ac8:	3000e7b7          	lui	a5,0x3000e
80000acc:	4798                	lw	a4,8(a5)
80000ace:	00176713          	ori	a4,a4,1
80000ad2:	c798                	sw	a4,8(a5)
D:\temp\K1921VG015\proj\Run_leds__2\Debug/../main.c:141
	RCU->RSTDISAPB_bit.TMR32EN = 1;
80000ad4:	4f98                	lw	a4,24(a5)
80000ad6:	00176713          	ori	a4,a4,1
80000ada:	cf98                	sw	a4,24(a5)
D:\temp\K1921VG015\proj\Run_leds__2\Debug/../main.c:144

	//    CAPCOM[0]
	TMR32->CAPCOM[0].VAL = period - 1;
80000adc:	157d                	addi	a0,a0,-1
80000ade:	30000737          	lui	a4,0x30000
80000ae2:	cf48                	sw	a0,28(a4)
D:\temp\K1921VG015\proj\Run_leds__2\Debug/../main.c:146
	//    0   CAPCOM[0]
	TMR32->CTRL_bit.MODE = 1;
80000ae4:	00075783          	lhu	a5,0(a4) # 30000000 <retarget.c.918a4a7b+0x2fff6174>
80000ae8:	fcf7f793          	andi	a5,a5,-49
80000aec:	0107e793          	ori	a5,a5,16
80000af0:	00f71023          	sh	a5,0(a4)
D:\temp\K1921VG015\proj\Run_leds__2\Debug/../main.c:149

	//       CAPCOM[0]
	TMR32->IM = 2;
80000af4:	4789                	li	a5,2
80000af6:	c71c                	sw	a5,8(a4)
D:\temp\K1921VG015\proj\Run_leds__2\Debug/../main.c:152

	//     TMR32
	PLIC_SetIrqHandler(Plic_Mach_Target, IsrVect_IRQ_TMR32, TMR32_IRQHandler);
80000af8:	80001637          	lui	a2,0x80001
80000afc:	fa660613          	addi	a2,a2,-90 # 80000fa6 <TMR32_IRQHandler>
80000b00:	4599                	li	a1,6
80000b02:	4501                	li	a0,0
80000b04:	fc0ff0ef          	jal	800002c4 <PLIC_SetIrqHandler>
D:\temp\K1921VG015\proj\Run_leds__2\Debug/../main.c:153
	PLIC_SetPriority(IsrVect_IRQ_TMR32, 0x1);
80000b08:	4585                	li	a1,1
80000b0a:	4519                	li	a0,6
80000b0c:	fd2ff0ef          	jal	800002de <PLIC_SetPriority>
D:\temp\K1921VG015\proj\Run_leds__2\Debug/../main.c:154
	PLIC_IntEnable(Plic_Mach_Target, IsrVect_IRQ_TMR32);
80000b10:	4599                	li	a1,6
80000b12:	4501                	li	a0,0
80000b14:	fd6ff0ef          	jal	800002ea <PLIC_IntEnable>
D:\temp\K1921VG015\proj\Run_leds__2\Debug/../main.c:155
}
80000b18:	40b2                	lw	ra,12(sp)
80000b1a:	0141                	addi	sp,sp,16
80000b1c:	8082                	ret

80000b1e <TMR1_PWN_init>:
TMR1_PWN_init():
D:\temp\K1921VG015\proj\Run_leds__2\Debug/../main.c:158

void TMR1_PWN_init(uint16_t period)
{
80000b1e:	1141                	addi	sp,sp,-16
80000b20:	c606                	sw	ra,12(sp)
D:\temp\K1921VG015\proj\Run_leds__2\Debug/../main.c:159
  RCU->CGCFGAPB_bit.TMR1EN = 1;
80000b22:	3000e7b7          	lui	a5,0x3000e
80000b26:	4798                	lw	a4,8(a5)
80000b28:	00476713          	ori	a4,a4,4
80000b2c:	c798                	sw	a4,8(a5)
D:\temp\K1921VG015\proj\Run_leds__2\Debug/../main.c:160
  RCU->RSTDISAPB_bit.TMR1EN = 1;
80000b2e:	4f98                	lw	a4,24(a5)
80000b30:	00476713          	ori	a4,a4,4
80000b34:	cf98                	sw	a4,24(a5)
D:\temp\K1921VG015\proj\Run_leds__2\Debug/../main.c:163

  //    GPIOA.8  GPIOA.9
  RCU->CGCFGAHB_bit.GPIOAEN = 1;
80000b36:	0007d703          	lhu	a4,0(a5) # 3000e000 <retarget.c.918a4a7b+0x30004174>
80000b3a:	10076713          	ori	a4,a4,256
80000b3e:	00e79023          	sh	a4,0(a5)
D:\temp\K1921VG015\proj\Run_leds__2\Debug/../main.c:165
  //  GPIOA
  RCU->RSTDISAHB_bit.GPIOAEN = 1;
80000b42:	0107d703          	lhu	a4,16(a5)
80000b46:	10076713          	ori	a4,a4,256
80000b4a:	00e79823          	sh	a4,16(a5)
D:\temp\K1921VG015\proj\Run_leds__2\Debug/../main.c:167
  //    2  GPIOA.8  GPIOA.9
  GPIOA->ALTFUNCNUM_bit.PIN8 = 2;
80000b4e:	280007b7          	lui	a5,0x28000
80000b52:	5fd8                	lw	a4,60(a5)
80000b54:	fffd06b7          	lui	a3,0xfffd0
80000b58:	16fd                	addi	a3,a3,-1 # fffcffff <__data_source_start+0x7ffcddd7>
80000b5a:	8f75                	and	a4,a4,a3
80000b5c:	000206b7          	lui	a3,0x20
80000b60:	8f55                	or	a4,a4,a3
80000b62:	dfd8                	sw	a4,60(a5)
D:\temp\K1921VG015\proj\Run_leds__2\Debug/../main.c:168
  GPIOA->ALTFUNCNUM_bit.PIN9 = 2;
80000b64:	5fd8                	lw	a4,60(a5)
80000b66:	fff406b7          	lui	a3,0xfff40
80000b6a:	16fd                	addi	a3,a3,-1 # fff3ffff <__data_source_start+0x7ff3ddd7>
80000b6c:	8f75                	and	a4,a4,a3
80000b6e:	000806b7          	lui	a3,0x80
80000b72:	8f55                	or	a4,a4,a3
80000b74:	dfd8                	sw	a4,60(a5)
D:\temp\K1921VG015\proj\Run_leds__2\Debug/../main.c:169
  GPIOA->ALTFUNCSET = (1 << 8) | (1 << 9);
80000b76:	30000713          	li	a4,768
80000b7a:	dbd8                	sw	a4,52(a5)
D:\temp\K1921VG015\proj\Run_leds__2\Debug/../main.c:172

  //    CAPCOM[0]
  TMR1->CAPCOM[0].VAL = period-1;
80000b7c:	fff50713          	addi	a4,a0,-1
80000b80:	0742                	slli	a4,a4,0x10
80000b82:	8341                	srli	a4,a4,0x10
80000b84:	300027b7          	lui	a5,0x30002
80000b88:	00e79e23          	sh	a4,28(a5) # 3000201c <retarget.c.918a4a7b+0x2fff8190>
D:\temp\K1921VG015\proj\Run_leds__2\Debug/../main.c:175

  //    CAPCOM[2] -   GPIOA.8
  TMR1->CAPCOM[2].CTRL_bit.CAP = 0; //  
80000b8c:	0287d703          	lhu	a4,40(a5)
80000b90:	eff77713          	andi	a4,a4,-257
80000b94:	02e79423          	sh	a4,40(a5)
D:\temp\K1921VG015\proj\Run_leds__2\Debug/../main.c:176
  TMR1->CAPCOM[2].CTRL_bit.OUTMODE = 7; /*   ,     CAPCOM[n].VAL.
80000b98:	0287d703          	lhu	a4,40(a5)
80000b9c:	0e076713          	ori	a4,a4,224
80000ba0:	02e79423          	sh	a4,40(a5)
D:\temp\K1921VG015\proj\Run_leds__2\Debug/../main.c:178
   ,     CAPCOM[0].VAL.*/
  TMR1->CAPCOM[2].VAL = (period >> 1) - 1;
80000ba4:	8105                	srli	a0,a0,0x1
80000ba6:	157d                	addi	a0,a0,-1
80000ba8:	0542                	slli	a0,a0,0x10
80000baa:	8141                	srli	a0,a0,0x10
80000bac:	02a79623          	sh	a0,44(a5)
D:\temp\K1921VG015\proj\Run_leds__2\Debug/../main.c:181

  //    CAPCOM[3] -   GPIOA.9
  TMR1->CAPCOM[3].CTRL_bit.CAP = 0; //  
80000bb0:	0307d703          	lhu	a4,48(a5)
80000bb4:	eff77713          	andi	a4,a4,-257
80000bb8:	02e79823          	sh	a4,48(a5)
D:\temp\K1921VG015\proj\Run_leds__2\Debug/../main.c:182
  TMR1->CAPCOM[3].CTRL_bit.OUTMODE = 3; /*   ,     CAPCOM[n].VAL.
80000bbc:	0307d703          	lhu	a4,48(a5)
80000bc0:	f1f77713          	andi	a4,a4,-225
80000bc4:	06076713          	ori	a4,a4,96
80000bc8:	02e79823          	sh	a4,48(a5)
D:\temp\K1921VG015\proj\Run_leds__2\Debug/../main.c:184
   ,     CAPCOM[0].VAL.*/
  TMR1->CAPCOM[3].VAL = (period >> 1) - 1;
80000bcc:	02a79a23          	sh	a0,52(a5)
D:\temp\K1921VG015\proj\Run_leds__2\Debug/../main.c:186

  TMR1->CTRL_bit.DIV = 3; //    8
80000bd0:	0007d703          	lhu	a4,0(a5)
80000bd4:	0c076713          	ori	a4,a4,192
80000bd8:	00e79023          	sh	a4,0(a5)
D:\temp\K1921VG015\proj\Run_leds__2\Debug/../main.c:188
  //    0   CAPCOM[0]
  TMR1->CTRL_bit.MODE = TMR_CTRL_MODE_Up;
80000bdc:	0007d703          	lhu	a4,0(a5)
80000be0:	fcf77713          	andi	a4,a4,-49
80000be4:	01076713          	ori	a4,a4,16
80000be8:	00e79023          	sh	a4,0(a5)
D:\temp\K1921VG015\proj\Run_leds__2\Debug/../main.c:191

  //       CAPCOM[0]
  TMR1->IM = 2;
80000bec:	4709                	li	a4,2
80000bee:	c798                	sw	a4,8(a5)
D:\temp\K1921VG015\proj\Run_leds__2\Debug/../main.c:194

  //     TMR1
  PLIC_SetIrqHandler (Plic_Mach_Target, IsrVect_IRQ_TMR32, TMR32_IRQHandler);
80000bf0:	80001637          	lui	a2,0x80001
80000bf4:	fa660613          	addi	a2,a2,-90 # 80000fa6 <TMR32_IRQHandler>
80000bf8:	4599                	li	a1,6
80000bfa:	4501                	li	a0,0
80000bfc:	ec8ff0ef          	jal	800002c4 <PLIC_SetIrqHandler>
D:\temp\K1921VG015\proj\Run_leds__2\Debug/../main.c:195
  PLIC_SetPriority   (IsrVect_IRQ_TMR32, 0x1);
80000c00:	4585                	li	a1,1
80000c02:	4519                	li	a0,6
80000c04:	edaff0ef          	jal	800002de <PLIC_SetPriority>
D:\temp\K1921VG015\proj\Run_leds__2\Debug/../main.c:196
  PLIC_IntEnable     (Plic_Mach_Target, IsrVect_IRQ_TMR32);
80000c08:	4599                	li	a1,6
80000c0a:	4501                	li	a0,0
80000c0c:	edeff0ef          	jal	800002ea <PLIC_IntEnable>
D:\temp\K1921VG015\proj\Run_leds__2\Debug/../main.c:197
}
80000c10:	40b2                	lw	ra,12(sp)
80000c12:	0141                	addi	sp,sp,16
80000c14:	8082                	ret

80000c16 <UART1_init>:
UART1_init():
D:\temp\K1921VG015\proj\Run_leds__2\Debug/../main.c:209
	//  188
    uint32_t baud_icoef = HSECLK_VAL / (16 * UART1_BAUD);
    uint32_t baud_fcoef = ((HSECLK_VAL / (16.0f * RETARGET_UART_BAUD) - baud_icoef) * 64 + 0.5f);

    //  GPIO
    RCU->CGCFGAHB_bit.GPIOAEN = 1;  //   AHB
80000c16:	3000e7b7          	lui	a5,0x3000e
80000c1a:	0007d703          	lhu	a4,0(a5) # 3000e000 <retarget.c.918a4a7b+0x30004174>
80000c1e:	10076713          	ori	a4,a4,256
80000c22:	00e79023          	sh	a4,0(a5)
D:\temp\K1921VG015\proj\Run_leds__2\Debug/../main.c:210
    RCU->RSTDISAHB_bit.GPIOAEN = 1; //  
80000c26:	0107d703          	lhu	a4,16(a5)
80000c2a:	10076713          	ori	a4,a4,256
80000c2e:	00e79823          	sh	a4,16(a5)
D:\temp\K1921VG015\proj\Run_leds__2\Debug/../main.c:211
    RCU->CGCFGAPB_bit.UART1EN = 1;  //  uart1
80000c32:	4798                	lw	a4,8(a5)
80000c34:	08076713          	ori	a4,a4,128
80000c38:	c798                	sw	a4,8(a5)
D:\temp\K1921VG015\proj\Run_leds__2\Debug/../main.c:212
    RCU->RSTDISAPB_bit.UART1EN = 1; //    uart1
80000c3a:	4f98                	lw	a4,24(a5)
80000c3c:	08076713          	ori	a4,a4,128
80000c40:	cf98                	sw	a4,24(a5)
D:\temp\K1921VG015\proj\Run_leds__2\Debug/../main.c:214

    GPIOA->ALTFUNCNUM_bit.PIN2 = 1;
80000c42:	28000737          	lui	a4,0x28000
80000c46:	5f54                	lw	a3,60(a4)
80000c48:	fcf6f693          	andi	a3,a3,-49
80000c4c:	0106e693          	ori	a3,a3,16
80000c50:	df54                	sw	a3,60(a4)
D:\temp\K1921VG015\proj\Run_leds__2\Debug/../main.c:215
    GPIOA->ALTFUNCNUM_bit.PIN3 = 1;
80000c52:	5f54                	lw	a3,60(a4)
80000c54:	f3f6f693          	andi	a3,a3,-193
80000c58:	0406e693          	ori	a3,a3,64
80000c5c:	df54                	sw	a3,60(a4)
D:\temp\K1921VG015\proj\Run_leds__2\Debug/../main.c:218

    // ALTFUNCSET      PA2  PA3
    GPIOA->ALTFUNCSET = GPIO_ALTFUNCSET_PIN2_Msk | GPIO_ALTFUNCSET_PIN3_Msk;
80000c5e:	46b1                	li	a3,12
80000c60:	db54                	sw	a3,52(a4)
D:\temp\K1921VG015\proj\Run_leds__2\Debug/../main.c:224

    //  UART1
    // UARTCLKCFG -    UART
    // CLKSEL -    UART1
    // HSE  
    RCU->UARTCLKCFG[1].UARTCLKCFG_bit.CLKSEL = RCU_UARTCLKCFG_CLKSEL_HSE;
80000c62:	5bf8                	lw	a4,116(a5)
80000c64:	fffd06b7          	lui	a3,0xfffd0
80000c68:	16fd                	addi	a3,a3,-1 # fffcffff <__data_source_start+0x7ffcddd7>
80000c6a:	8f75                	and	a4,a4,a3
80000c6c:	66c1                	lui	a3,0x10
80000c6e:	8f55                	or	a4,a4,a3
80000c70:	dbf8                	sw	a4,116(a5)
D:\temp\K1921VG015\proj\Run_leds__2\Debug/../main.c:227

    // DIVEN -    
    RCU->UARTCLKCFG[1].UARTCLKCFG_bit.DIVEN = 0;
80000c72:	5bf8                	lw	a4,116(a5)
80000c74:	fff006b7          	lui	a3,0xfff00
80000c78:	16fd                	addi	a3,a3,-1 # ffefffff <__data_source_start+0x7fefddd7>
80000c7a:	8f75                	and	a4,a4,a3
80000c7c:	dbf8                	sw	a4,116(a5)
D:\temp\K1921VG015\proj\Run_leds__2\Debug/../main.c:229
    // RSTDIS -  
    RCU->UARTCLKCFG[1].UARTCLKCFG_bit.RSTDIS = 1;
80000c7e:	5bf8                	lw	a4,116(a5)
80000c80:	10076713          	ori	a4,a4,256
80000c84:	dbf8                	sw	a4,116(a5)
D:\temp\K1921VG015\proj\Run_leds__2\Debug/../main.c:231
    //  
    RCU->UARTCLKCFG[1].UARTCLKCFG_bit.CLKEN = 1;
80000c86:	5bf8                	lw	a4,116(a5)
80000c88:	00176713          	ori	a4,a4,1
80000c8c:	dbf8                	sw	a4,116(a5)
D:\temp\K1921VG015\proj\Run_leds__2\Debug/../main.c:233

    UART1->IBRD = baud_icoef; //   
80000c8e:	300077b7          	lui	a5,0x30007
80000c92:	4721                	li	a4,8
80000c94:	d3d8                	sw	a4,36(a5)
D:\temp\K1921VG015\proj\Run_leds__2\Debug/../main.c:236

    // Fractional Baud Rate Divisor
    UART1->FBRD = baud_fcoef;
80000c96:	02c00713          	li	a4,44
80000c9a:	d798                	sw	a4,40(a5)
D:\temp\K1921VG015\proj\Run_leds__2\Debug/../main.c:241

    // Line Control Register High
    // UART_LCRH_FEN_Msk  FIFO (  )
    // 3 << UART_LCRH_WLEN_Pos   8  
    UART1->LCRH = UART_LCRH_FEN_Msk | (3 << UART_LCRH_WLEN_Pos);
80000c9c:	07000713          	li	a4,112
80000ca0:	d7d8                	sw	a4,44(a5)
D:\temp\K1921VG015\proj\Run_leds__2\Debug/../main.c:244

    //Interrupt FIFO Level Select
    UART1->IFLS = 0;
80000ca2:	0207aa23          	sw	zero,52(a5) # 30007034 <retarget.c.918a4a7b+0x2fffd1a8>
D:\temp\K1921VG015\proj\Run_leds__2\Debug/../main.c:252
     Control Register
     UART_CR_TXE_Msk   (TX)
     UART_CR_RXE_Msk   (RX)
     UART_CR_UARTEN_Msk  UART
     */
    UART1->CR = UART_CR_TXE_Msk | UART_CR_RXE_Msk | UART_CR_UARTEN_Msk;
80000ca6:	30100713          	li	a4,769
80000caa:	db98                	sw	a4,48(a5)
D:\temp\K1921VG015\proj\Run_leds__2\Debug/../main.c:253
}
80000cac:	8082                	ret

80000cae <update_leds>:
update_leds():
D:\temp\K1921VG015\proj\Run_leds__2\Debug/../main.c:316
}


void update_leds()
{
	switch(button_click_counter)
80000cae:	88c1a783          	lw	a5,-1908(gp) # 4000000c <button_click_counter>
80000cb2:	470d                	li	a4,3
80000cb4:	06e78163          	beq	a5,a4,80000d16 <update_leds+0x68>
80000cb8:	02f76063          	bltu	a4,a5,80000cd8 <update_leds+0x2a>
80000cbc:	4705                	li	a4,1
80000cbe:	02e78863          	beq	a5,a4,80000cee <update_leds+0x40>
80000cc2:	4709                	li	a4,2
80000cc4:	00e79963          	bne	a5,a4,80000cd6 <update_leds+0x28>
D:\temp\K1921VG015\proj\Run_leds__2\Debug/../main.c:325
		led_shift = led_shift << 1;
		if(led_shift > LED7_MSK) led_shift = LED0_MSK;
		break;

	case MODE_BLINKING:
		GPIOA->DATAOUTTGL = LEDS_MSK;
80000cc8:	28000737          	lui	a4,0x28000
80000ccc:	67c1                	lui	a5,0x10
80000cce:	f0078793          	addi	a5,a5,-256 # ff00 <retarget.c.918a4a7b+0x6074>
80000cd2:	cb1c                	sw	a5,16(a4)
D:\temp\K1921VG015\proj\Run_leds__2\Debug/../main.c:326
		break;
80000cd4:	8082                	ret
80000cd6:	8082                	ret
D:\temp\K1921VG015\proj\Run_leds__2\Debug/../main.c:316
	switch(button_click_counter)
80000cd8:	4711                	li	a4,4
80000cda:	00e79963          	bne	a5,a4,80000cec <update_leds+0x3e>
D:\temp\K1921VG015\proj\Run_leds__2\Debug/../main.c:332

	case MODE_ALL_ON:
		GPIOA->DATAOUTSET = LEDS_MSK;
		break;
	case MODE_ALL_OFF:
		GPIOA->DATAOUTCLR = LEDS_MSK;
80000cde:	28000737          	lui	a4,0x28000
80000ce2:	67c1                	lui	a5,0x10
80000ce4:	f0078793          	addi	a5,a5,-256 # ff00 <retarget.c.918a4a7b+0x6074>
80000ce8:	c75c                	sw	a5,12(a4)
D:\temp\K1921VG015\proj\Run_leds__2\Debug/../main.c:338
		break;

	default:
		break;
	}
}
80000cea:	8082                	ret
80000cec:	8082                	ret
D:\temp\K1921VG015\proj\Run_leds__2\Debug/../main.c:319
		GPIOA->DATAOUTTGL = led_shift;
80000cee:	abc1a683          	lw	a3,-1348(gp) # 4000023c <led_shift>
80000cf2:	28000737          	lui	a4,0x28000
80000cf6:	cb14                	sw	a3,16(a4)
D:\temp\K1921VG015\proj\Run_leds__2\Debug/../main.c:320
		led_shift = led_shift << 1;
80000cf8:	abc1a703          	lw	a4,-1348(gp) # 4000023c <led_shift>
80000cfc:	0706                	slli	a4,a4,0x1
80000cfe:	aae1ae23          	sw	a4,-1348(gp) # 4000023c <led_shift>
D:\temp\K1921VG015\proj\Run_leds__2\Debug/../main.c:321
		if(led_shift > LED7_MSK) led_shift = LED0_MSK;
80000d02:	abc1a703          	lw	a4,-1348(gp) # 4000023c <led_shift>
80000d06:	67a1                	lui	a5,0x8
80000d08:	fee7f1e3          	bgeu	a5,a4,80000cea <update_leds+0x3c>
D:\temp\K1921VG015\proj\Run_leds__2\Debug/../main.c:321 (discriminator 1)
80000d0c:	10000713          	li	a4,256
80000d10:	aae1ae23          	sw	a4,-1348(gp) # 4000023c <led_shift>
80000d14:	8082                	ret
D:\temp\K1921VG015\proj\Run_leds__2\Debug/../main.c:329
		GPIOA->DATAOUTSET = LEDS_MSK;
80000d16:	28000737          	lui	a4,0x28000
80000d1a:	67c1                	lui	a5,0x10
80000d1c:	f0078793          	addi	a5,a5,-256 # ff00 <retarget.c.918a4a7b+0x6074>
80000d20:	c71c                	sw	a5,8(a4)
D:\temp\K1921VG015\proj\Run_leds__2\Debug/../main.c:330
		break;
80000d22:	8082                	ret

80000d24 <retarget_init>:
retarget_init():
D:\temp\K1921VG015\proj\Run_leds__2\Debug/../retarget.c:40
    uint32_t baud_icoef = SystemCoreClock_uart / (16 * RETARGET_UART_BAUD);
    uint32_t baud_fcoef = ((SystemCoreClock_uart / (16.0f * RETARGET_UART_BAUD) - baud_icoef) * 64 + 0.5f);
    uint32_t uartclk_ref = 1;//RCU_UARTCFG_UARTCFG_CLKSEL_OSICLK;

    //  
    RCU->CGCFGAHB_bit.GPIOAEN = 1;   //   A
80000d24:	3000e7b7          	lui	a5,0x3000e
80000d28:	0007d703          	lhu	a4,0(a5) # 3000e000 <retarget.c.918a4a7b+0x30004174>
80000d2c:	10076713          	ori	a4,a4,256
80000d30:	00e79023          	sh	a4,0(a5)
D:\temp\K1921VG015\proj\Run_leds__2\Debug/../retarget.c:41
    RCU->RSTDISAHB_bit.GPIOAEN = 1;
80000d34:	0107d703          	lhu	a4,16(a5)
80000d38:	10076713          	ori	a4,a4,256
80000d3c:	00e79823          	sh	a4,16(a5)
D:\temp\K1921VG015\proj\Run_leds__2\Debug/../retarget.c:44

    // UART0
    RCU->CGCFGAPB_bit.UART0EN = 1;
80000d40:	4798                	lw	a4,8(a5)
80000d42:	04076713          	ori	a4,a4,64
80000d46:	c798                	sw	a4,8(a5)
D:\temp\K1921VG015\proj\Run_leds__2\Debug/../retarget.c:45
    RCU->RSTDISAPB_bit.UART0EN = 1;
80000d48:	4f98                	lw	a4,24(a5)
80000d4a:	04076713          	ori	a4,a4,64
80000d4e:	cf98                	sw	a4,24(a5)
D:\temp\K1921VG015\proj\Run_leds__2\Debug/../retarget.c:48

    //
    RETARGET_UART_PORT->ALTFUNCNUM_bit.PIN0 = 1;  // PA0
80000d50:	28000737          	lui	a4,0x28000
80000d54:	5f54                	lw	a3,60(a4)
80000d56:	9af1                	andi	a3,a3,-4
80000d58:	0016e693          	ori	a3,a3,1
80000d5c:	df54                	sw	a3,60(a4)
D:\temp\K1921VG015\proj\Run_leds__2\Debug/../retarget.c:49
    RETARGET_UART_PORT->ALTFUNCNUM_bit.PIN1 = 1;  // PA1
80000d5e:	5f54                	lw	a3,60(a4)
80000d60:	9acd                	andi	a3,a3,-13
80000d62:	0046e693          	ori	a3,a3,4
80000d66:	df54                	sw	a3,60(a4)
D:\temp\K1921VG015\proj\Run_leds__2\Debug/../retarget.c:51

    RETARGET_UART_PORT->ALTFUNCSET = (1 << RETARGET_UART_PIN_TX_POS) | (1 << RETARGET_UART_PIN_RX_POS);
80000d68:	468d                	li	a3,3
80000d6a:	db54                	sw	a3,52(a4)
D:\temp\K1921VG015\proj\Run_leds__2\Debug/../retarget.c:52
    RCU->UARTCLKCFG[RETARGET_UART_NUM].UARTCLKCFG = (uartclk_ref << RCU_UARTCLKCFG_CLKSEL_Pos) |
80000d6c:	6741                	lui	a4,0x10
80000d6e:	10170713          	addi	a4,a4,257 # 10101 <retarget.c.918a4a7b+0x6275>
80000d72:	dbb8                	sw	a4,112(a5)
D:\temp\K1921VG015\proj\Run_leds__2\Debug/../retarget.c:55
                                              	  	  RCU_UARTCLKCFG_CLKEN_Msk |
													  RCU_UARTCLKCFG_RSTDIS_Msk;
    RETARGET_UART->IBRD = baud_icoef;
80000d74:	300067b7          	lui	a5,0x30006
80000d78:	4721                	li	a4,8
80000d7a:	d3d8                	sw	a4,36(a5)
D:\temp\K1921VG015\proj\Run_leds__2\Debug/../retarget.c:56
    RETARGET_UART->FBRD = baud_fcoef;
80000d7c:	02c00713          	li	a4,44
80000d80:	d798                	sw	a4,40(a5)
D:\temp\K1921VG015\proj\Run_leds__2\Debug/../retarget.c:57
    RETARGET_UART->LCRH = UART_LCRH_FEN_Msk | (3 << UART_LCRH_WLEN_Pos);
80000d82:	07000713          	li	a4,112
80000d86:	d7d8                	sw	a4,44(a5)
D:\temp\K1921VG015\proj\Run_leds__2\Debug/../retarget.c:58
    RETARGET_UART->CR = UART_CR_TXE_Msk | UART_CR_RXE_Msk | UART_CR_UARTEN_Msk;
80000d88:	30100713          	li	a4,769
80000d8c:	db98                	sw	a4,48(a5)
D:\temp\K1921VG015\proj\Run_leds__2\Debug/../retarget.c:60
#endif //RETARGET
}
80000d8e:	8082                	ret

80000d90 <retarget_put_char>:
retarget_put_char():
D:\temp\K1921VG015\proj\Run_leds__2\Debug/../retarget.c:82 (discriminator 1)
//  
int retarget_put_char(int ch)
{
#if defined RETARGET
	//   uart 
    while (RETARGET_UART->FR_bit.BUSY) {
80000d90:	300067b7          	lui	a5,0x30006
80000d94:	4f9c                	lw	a5,24(a5)
80000d96:	838d                	srli	a5,a5,0x3
80000d98:	8b85                	andi	a5,a5,1
80000d9a:	fbfd                	bnez	a5,80000d90 <retarget_put_char>
D:\temp\K1921VG015\proj\Run_leds__2\Debug/../retarget.c:85
    };
    //  , DR - data register
    RETARGET_UART->DR = ch;
80000d9c:	300067b7          	lui	a5,0x30006
80000da0:	c388                	sw	a0,0(a5)
D:\temp\K1921VG015\proj\Run_leds__2\Debug/../retarget.c:88
#endif //RETARGET
    return 0;
}
80000da2:	4501                	li	a0,0
80000da4:	8082                	ret

80000da6 <PrintChar>:
PrintChar():
D:\temp\K1921VG015\proj\Run_leds__2\Debug/../platform/source/printf.c:21
{
80000da6:	1141                	addi	sp,sp,-16
80000da8:	c606                	sw	ra,12(sp)
D:\temp\K1921VG015\proj\Run_leds__2\Debug/../platform/source/printf.c:22
	retarget_put_char(c);
80000daa:	37dd                	jal	80000d90 <retarget_put_char>
D:\temp\K1921VG015\proj\Run_leds__2\Debug/../platform/source/printf.c:23
}
80000dac:	40b2                	lw	ra,12(sp)
80000dae:	0141                	addi	sp,sp,16
80000db0:	8082                	ret

80000db2 <fputc>:
fputc():
D:\temp\K1921VG015\proj\Run_leds__2\Debug/../platform/source/printf.c:518
 * @param pStream  Output stream.
 * @param The character written if successful, or -1 if the output stream is
 *        not stdout or stderr.
 */
signed int fputc(signed int c, FILE *pStream)
{
80000db2:	1141                	addi	sp,sp,-16
80000db4:	c606                	sw	ra,12(sp)
80000db6:	c422                	sw	s0,8(sp)
80000db8:	842a                	mv	s0,a0
D:\temp\K1921VG015\proj\Run_leds__2\Debug/../platform/source/printf.c:519
    if ((pStream == stdout) || (pStream == stderr)) {
80000dba:	99018793          	addi	a5,gp,-1648 # 40000110 <r>
80000dbe:	479c                	lw	a5,8(a5)
80000dc0:	00b78763          	beq	a5,a1,80000dce <fputc+0x1c>
D:\temp\K1921VG015\proj\Run_leds__2\Debug/../platform/source/printf.c:519 (discriminator 1)
80000dc4:	99018793          	addi	a5,gp,-1648 # 40000110 <r>
80000dc8:	47dc                	lw	a5,12(a5)
80000dca:	00b79b63          	bne	a5,a1,80000de0 <fputc+0x2e>
D:\temp\K1921VG015\proj\Run_leds__2\Debug/../platform/source/printf.c:521

    	PrintChar(c);
80000dce:	01841513          	slli	a0,s0,0x18
80000dd2:	8561                	srai	a0,a0,0x18
80000dd4:	3fc9                	jal	80000da6 <PrintChar>
D:\temp\K1921VG015\proj\Run_leds__2\Debug/../platform/source/printf.c:523

        return c;
80000dd6:	8522                	mv	a0,s0
D:\temp\K1921VG015\proj\Run_leds__2\Debug/../platform/source/printf.c:529
    }
    else {

        return EOF;
    }
}
80000dd8:	40b2                	lw	ra,12(sp)
80000dda:	4422                	lw	s0,8(sp)
80000ddc:	0141                	addi	sp,sp,16
80000dde:	8082                	ret
D:\temp\K1921VG015\proj\Run_leds__2\Debug/../platform/source/printf.c:527
        return EOF;
80000de0:	557d                	li	a0,-1
80000de2:	bfdd                	j	80000dd8 <fputc+0x26>

80000de4 <fputs>:
fputs():
D:\temp\K1921VG015\proj\Run_leds__2\Debug/../platform/source/printf.c:543
 *
 * @return  Number of characters written if successful, or -1 if the output
 *          stream is not stdout or stderr.
 */
signed int fputs(const char *pStr, FILE *pStream)
{
80000de4:	1141                	addi	sp,sp,-16
80000de6:	c606                	sw	ra,12(sp)
80000de8:	c422                	sw	s0,8(sp)
80000dea:	c226                	sw	s1,4(sp)
80000dec:	c04a                	sw	s2,0(sp)
80000dee:	842a                	mv	s0,a0
80000df0:	892e                	mv	s2,a1
D:\temp\K1921VG015\proj\Run_leds__2\Debug/../platform/source/printf.c:544
    signed int num = 0;
80000df2:	4481                	li	s1,0
D:\temp\K1921VG015\proj\Run_leds__2\Debug/../platform/source/printf.c:546

    while (*pStr != 0) {
80000df4:	a019                	j	80000dfa <fputs+0x16>
D:\temp\K1921VG015\proj\Run_leds__2\Debug/../platform/source/printf.c:552

        if (fputc(*pStr, pStream) == -1) {

            return -1;
        }
        num++;
80000df6:	0485                	addi	s1,s1,1
D:\temp\K1921VG015\proj\Run_leds__2\Debug/../platform/source/printf.c:553
        pStr++;
80000df8:	0405                	addi	s0,s0,1
D:\temp\K1921VG015\proj\Run_leds__2\Debug/../platform/source/printf.c:546
    while (*pStr != 0) {
80000dfa:	00040503          	lb	a0,0(s0)
80000dfe:	c519                	beqz	a0,80000e0c <fputs+0x28>
D:\temp\K1921VG015\proj\Run_leds__2\Debug/../platform/source/printf.c:548
        if (fputc(*pStr, pStream) == -1) {
80000e00:	85ca                	mv	a1,s2
80000e02:	3f45                	jal	80000db2 <fputc>
D:\temp\K1921VG015\proj\Run_leds__2\Debug/../platform/source/printf.c:548 (discriminator 1)
80000e04:	57fd                	li	a5,-1
80000e06:	fef518e3          	bne	a0,a5,80000df6 <fputs+0x12>
D:\temp\K1921VG015\proj\Run_leds__2\Debug/../platform/source/printf.c:550
            return -1;
80000e0a:	84aa                	mv	s1,a0
D:\temp\K1921VG015\proj\Run_leds__2\Debug/../platform/source/printf.c:557
    }

    return num;
}
80000e0c:	8526                	mv	a0,s1
80000e0e:	40b2                	lw	ra,12(sp)
80000e10:	4422                	lw	s0,8(sp)
80000e12:	4492                	lw	s1,4(sp)
80000e14:	4902                	lw	s2,0(sp)
80000e16:	0141                	addi	sp,sp,16
80000e18:	8082                	ret

80000e1a <vfprintf>:
vfprintf():
D:\temp\K1921VG015\proj\Run_leds__2\Debug/../platform/source/printf.c:404
{
80000e1a:	7135                	addi	sp,sp,-160
80000e1c:	cf06                	sw	ra,156(sp)
80000e1e:	cd22                	sw	s0,152(sp)
80000e20:	842a                	mv	s0,a0
D:\temp\K1921VG015\proj\Run_leds__2\Debug/../platform/source/printf.c:406
    char pError[] = "stdio.c: increase MAX_STRING_SIZE\n\r";
80000e22:	800027b7          	lui	a5,0x80002
80000e26:	1bc78793          	addi	a5,a5,444 # 800021bc <__clz_tab+0x184>
80000e2a:	0007ae83          	lw	t4,0(a5)
80000e2e:	0047ae03          	lw	t3,4(a5)
80000e32:	0087a303          	lw	t1,8(a5)
80000e36:	00c7a883          	lw	a7,12(a5)
80000e3a:	0107a803          	lw	a6,16(a5)
80000e3e:	4bc8                	lw	a0,20(a5)
80000e40:	4f94                	lw	a3,24(a5)
80000e42:	4fd8                	lw	a4,28(a5)
80000e44:	539c                	lw	a5,32(a5)
80000e46:	c476                	sw	t4,8(sp)
80000e48:	c672                	sw	t3,12(sp)
80000e4a:	c81a                	sw	t1,16(sp)
80000e4c:	ca46                	sw	a7,20(sp)
80000e4e:	cc42                	sw	a6,24(sp)
80000e50:	ce2a                	sw	a0,28(sp)
80000e52:	d036                	sw	a3,32(sp)
80000e54:	d23a                	sw	a4,36(sp)
80000e56:	d43e                	sw	a5,40(sp)
D:\temp\K1921VG015\proj\Run_leds__2\Debug/../platform/source/printf.c:409
    if (vsprintf(pStr, pFormat, ap) >= MAX_STRING_SIZE) {
80000e58:	1068                	addi	a0,sp,44
80000e5a:	87fff0ef          	jal	800006d8 <vsprintf>
D:\temp\K1921VG015\proj\Run_leds__2\Debug/../platform/source/printf.c:409 (discriminator 1)
80000e5e:	06300793          	li	a5,99
80000e62:	00a7d863          	bge	a5,a0,80000e72 <vfprintf+0x58>
D:\temp\K1921VG015\proj\Run_leds__2\Debug/../platform/source/printf.c:411
        fputs(pError, stderr);
80000e66:	99018793          	addi	a5,gp,-1648 # 40000110 <r>
80000e6a:	47cc                	lw	a1,12(a5)
80000e6c:	0028                	addi	a0,sp,8
80000e6e:	3f9d                	jal	80000de4 <fputs>
D:\temp\K1921VG015\proj\Run_leds__2\Debug/../platform/source/printf.c:412
        while (1); /* Increase MAX_STRING_SIZE */
80000e70:	a001                	j	80000e70 <vfprintf+0x56>
D:\temp\K1921VG015\proj\Run_leds__2\Debug/../platform/source/printf.c:416
    return fputs(pStr, pStream);
80000e72:	85a2                	mv	a1,s0
80000e74:	1068                	addi	a0,sp,44
80000e76:	37bd                	jal	80000de4 <fputs>
D:\temp\K1921VG015\proj\Run_leds__2\Debug/../platform/source/printf.c:417
}
80000e78:	40fa                	lw	ra,156(sp)
80000e7a:	446a                	lw	s0,152(sp)
80000e7c:	610d                	addi	sp,sp,160
80000e7e:	8082                	ret

80000e80 <vprintf>:
vprintf():
D:\temp\K1921VG015\proj\Run_leds__2\Debug/../platform/source/printf.c:428
{
80000e80:	1141                	addi	sp,sp,-16
80000e82:	c606                	sw	ra,12(sp)
80000e84:	862e                	mv	a2,a1
D:\temp\K1921VG015\proj\Run_leds__2\Debug/../platform/source/printf.c:429
    return vfprintf(stdout, pFormat, ap);
80000e86:	85aa                	mv	a1,a0
80000e88:	99018793          	addi	a5,gp,-1648 # 40000110 <r>
80000e8c:	4788                	lw	a0,8(a5)
80000e8e:	3771                	jal	80000e1a <vfprintf>
D:\temp\K1921VG015\proj\Run_leds__2\Debug/../platform/source/printf.c:430
}
80000e90:	40b2                	lw	ra,12(sp)
80000e92:	0141                	addi	sp,sp,16
80000e94:	8082                	ret

80000e96 <Send_buff>:
Send_buff():
D:\temp\K1921VG015\proj\Run_leds__2\Debug/../main.c:48
{
80000e96:	1141                	addi	sp,sp,-16
80000e98:	c606                	sw	ra,12(sp)
80000e9a:	c422                	sw	s0,8(sp)
80000e9c:	c226                	sw	s1,4(sp)
80000e9e:	84aa                	mv	s1,a0
D:\temp\K1921VG015\proj\Run_leds__2\Debug/../main.c:49
	uint8_t i = 0;
80000ea0:	4401                	li	s0,0
D:\temp\K1921VG015\proj\Run_leds__2\Debug/../main.c:50
	while ((i < 120) && (a[i] != '\0'))
80000ea2:	a029                	j	80000eac <Send_buff+0x16>
D:\temp\K1921VG015\proj\Run_leds__2\Debug/../main.c:52
		retarget_put_char(a[i]);
80000ea4:	35f5                	jal	80000d90 <retarget_put_char>
D:\temp\K1921VG015\proj\Run_leds__2\Debug/../main.c:53
		i++;
80000ea6:	0405                	addi	s0,s0,1
80000ea8:	0ff47413          	zext.b	s0,s0
D:\temp\K1921VG015\proj\Run_leds__2\Debug/../main.c:50
	while ((i < 120) && (a[i] != '\0'))
80000eac:	07700793          	li	a5,119
80000eb0:	0087e763          	bltu	a5,s0,80000ebe <Send_buff+0x28>
D:\temp\K1921VG015\proj\Run_leds__2\Debug/../main.c:50 (discriminator 1)
80000eb4:	008487b3          	add	a5,s1,s0
80000eb8:	00078503          	lb	a0,0(a5)
80000ebc:	f565                	bnez	a0,80000ea4 <Send_buff+0xe>
D:\temp\K1921VG015\proj\Run_leds__2\Debug/../main.c:55
}
80000ebe:	40b2                	lw	ra,12(sp)
80000ec0:	4422                	lw	s0,8(sp)
80000ec2:	4492                	lw	s1,4(sp)
80000ec4:	0141                	addi	sp,sp,16
80000ec6:	8082                	ret

80000ec8 <printf>:
printf():
D:\temp\K1921VG015\proj\Run_leds__2\Debug/../platform/source/printf.c:461
{
80000ec8:	7139                	addi	sp,sp,-64
80000eca:	ce06                	sw	ra,28(sp)
80000ecc:	d22e                	sw	a1,36(sp)
80000ece:	d432                	sw	a2,40(sp)
80000ed0:	d636                	sw	a3,44(sp)
80000ed2:	d83a                	sw	a4,48(sp)
80000ed4:	da3e                	sw	a5,52(sp)
80000ed6:	dc42                	sw	a6,56(sp)
80000ed8:	de46                	sw	a7,60(sp)
D:\temp\K1921VG015\proj\Run_leds__2\Debug/../platform/source/printf.c:466
    va_start(ap, pFormat);
80000eda:	104c                	addi	a1,sp,36
80000edc:	c62e                	sw	a1,12(sp)
D:\temp\K1921VG015\proj\Run_leds__2\Debug/../platform/source/printf.c:467
    result = vprintf(pFormat, ap);
80000ede:	374d                	jal	80000e80 <vprintf>
D:\temp\K1921VG015\proj\Run_leds__2\Debug/../platform/source/printf.c:471
}
80000ee0:	40f2                	lw	ra,28(sp)
80000ee2:	6121                	addi	sp,sp,64
80000ee4:	8082                	ret

80000ee6 <sprintf>:
sprintf():
D:\temp\K1921VG015\proj\Run_leds__2\Debug/../platform/source/printf.c:481
{
80000ee6:	7139                	addi	sp,sp,-64
80000ee8:	ce06                	sw	ra,28(sp)
80000eea:	d432                	sw	a2,40(sp)
80000eec:	d636                	sw	a3,44(sp)
80000eee:	d83a                	sw	a4,48(sp)
80000ef0:	da3e                	sw	a5,52(sp)
80000ef2:	dc42                	sw	a6,56(sp)
80000ef4:	de46                	sw	a7,60(sp)
D:\temp\K1921VG015\proj\Run_leds__2\Debug/../platform/source/printf.c:486
    va_start(ap, pFormat);
80000ef6:	1030                	addi	a2,sp,40
80000ef8:	c632                	sw	a2,12(sp)
D:\temp\K1921VG015\proj\Run_leds__2\Debug/../platform/source/printf.c:487
    result = vsprintf(pStr, pFormat, ap);
80000efa:	fdeff0ef          	jal	800006d8 <vsprintf>
D:\temp\K1921VG015\proj\Run_leds__2\Debug/../platform/source/printf.c:491
}
80000efe:	40f2                	lw	ra,28(sp)
80000f00:	6121                	addi	sp,sp,64
80000f02:	8082                	ret

80000f04 <periph_init>:
periph_init():
D:\temp\K1921VG015\proj\Run_leds__2\Debug/../main.c:257
{
80000f04:	1141                	addi	sp,sp,-16
80000f06:	c606                	sw	ra,12(sp)
80000f08:	c422                	sw	s0,8(sp)
80000f0a:	c226                	sw	s1,4(sp)
80000f0c:	c04a                	sw	s2,0(sp)
D:\temp\K1921VG015\proj\Run_leds__2\Debug/../main.c:258
	BSP_led_init();
80000f0e:	3ac9                	jal	800008e0 <BSP_led_init>
D:\temp\K1921VG015\proj\Run_leds__2\Debug/../main.c:259
	SystemInit();
80000f10:	32d1                	jal	800008d4 <SystemInit>
D:\temp\K1921VG015\proj\Run_leds__2\Debug/../main.c:260
	SystemCoreClockUpdate();
80000f12:	fdaff0ef          	jal	800006ec <SystemCoreClockUpdate>
D:\temp\K1921VG015\proj\Run_leds__2\Debug/../main.c:261
	UART1_init();
80000f16:	3301                	jal	80000c16 <UART1_init>
D:\temp\K1921VG015\proj\Run_leds__2\Debug/../main.c:262
	retarget_init();
80000f18:	3531                	jal	80000d24 <retarget_init>
D:\temp\K1921VG015\proj\Run_leds__2\Debug/../main.c:263
	adcsar_init();
80000f1a:	3c0d                	jal	8000094c <adcsar_init>
D:\temp\K1921VG015\proj\Run_leds__2\Debug/../main.c:265
	sprintf(buff,"  K1921VG015 SYSCLK = %d MHz\r\n\0",(int)(SystemCoreClock / 1E6)); 	Send_buff(buff);
80000f1c:	ac01a503          	lw	a0,-1344(gp) # 40000240 <SystemCoreClock>
80000f20:	771000ef          	jal	80001e90 <__floatunsidf>
80000f24:	800027b7          	lui	a5,0x80002
80000f28:	1f87a603          	lw	a2,504(a5) # 800021f8 <__clz_tab+0x1c0>
80000f2c:	1fc7a683          	lw	a3,508(a5)
80000f30:	2139                	jal	8000133e <__divdf3>
80000f32:	679000ef          	jal	80001daa <__fixdfsi>
80000f36:	862a                	mv	a2,a0
80000f38:	800025b7          	lui	a1,0x80002
80000f3c:	f7058913          	addi	s2,a1,-144 # 80001f70 <_tdata_start>
80000f40:	f7058593          	addi	a1,a1,-144
80000f44:	acc18513          	addi	a0,gp,-1332 # 4000024c <buff>
80000f48:	3f79                	jal	80000ee6 <sprintf>
D:\temp\K1921VG015\proj\Run_leds__2\Debug/../main.c:265 (discriminator 1)
80000f4a:	acc18513          	addi	a0,gp,-1332 # 4000024c <buff>
80000f4e:	37a1                	jal	80000e96 <Send_buff>
D:\temp\K1921VG015\proj\Run_leds__2\Debug/../main.c:266
	sprintf(buff,"  UID[0] = 0x%X  UID[1] = 0x%X  UID[2] = 0x%X  UID[3] = 0x%X\r\n\0",PMUSYS->UID[0],PMUSYS->UID[1],PMUSYS->UID[2],PMUSYS->UID[3]); Send_buff(buff);
80000f50:	3000f4b7          	lui	s1,0x3000f
80000f54:	1104a603          	lw	a2,272(s1) # 3000f110 <retarget.c.918a4a7b+0x30005284>
80000f58:	1144a683          	lw	a3,276(s1)
80000f5c:	1184a703          	lw	a4,280(s1)
80000f60:	11c4a783          	lw	a5,284(s1)
80000f64:	02090593          	addi	a1,s2,32
80000f68:	acc18513          	addi	a0,gp,-1332 # 4000024c <buff>
80000f6c:	3fad                	jal	80000ee6 <sprintf>
D:\temp\K1921VG015\proj\Run_leds__2\Debug/../main.c:266 (discriminator 1)
80000f6e:	acc18513          	addi	a0,gp,-1332 # 4000024c <buff>
80000f72:	3715                	jal	80000e96 <Send_buff>
D:\temp\K1921VG015\proj\Run_leds__2\Debug/../main.c:267
    sprintf(buff,"  PartNum = 0x%X\r\n\0",(uint16_t)(PMUSYS->UID[3] >> 16)); Send_buff(buff);
80000f74:	11c4a603          	lw	a2,284(s1)
80000f78:	8241                	srli	a2,a2,0x10
80000f7a:	06090593          	addi	a1,s2,96
80000f7e:	acc18513          	addi	a0,gp,-1332 # 4000024c <buff>
80000f82:	3795                	jal	80000ee6 <sprintf>
D:\temp\K1921VG015\proj\Run_leds__2\Debug/../main.c:267 (discriminator 1)
80000f84:	acc18513          	addi	a0,gp,-1332 # 4000024c <buff>
80000f88:	3739                	jal	80000e96 <Send_buff>
D:\temp\K1921VG015\proj\Run_leds__2\Debug/../main.c:268
    sprintf(buff,"  Start UART DMA\r\n\0"); Send_buff(buff);
80000f8a:	07490593          	addi	a1,s2,116
80000f8e:	acc18513          	addi	a0,gp,-1332 # 4000024c <buff>
80000f92:	3f91                	jal	80000ee6 <sprintf>
D:\temp\K1921VG015\proj\Run_leds__2\Debug/../main.c:268 (discriminator 1)
80000f94:	acc18513          	addi	a0,gp,-1332 # 4000024c <buff>
80000f98:	3dfd                	jal	80000e96 <Send_buff>
D:\temp\K1921VG015\proj\Run_leds__2\Debug/../main.c:269
}
80000f9a:	40b2                	lw	ra,12(sp)
80000f9c:	4422                	lw	s0,8(sp)
80000f9e:	4492                	lw	s1,4(sp)
80000fa0:	4902                	lw	s2,0(sp)
80000fa2:	0141                	addi	sp,sp,16
80000fa4:	8082                	ret

80000fa6 <TMR32_IRQHandler>:
TMR32_IRQHandler():
D:\temp\K1921VG015\proj\Run_leds__2\Debug/../main.c:342

//-- IRQ INTERRUPT HANDLERS ---------------------------------------------------------------
void TMR32_IRQHandler() //   10 
{
80000fa6:	1141                	addi	sp,sp,-16
80000fa8:	c606                	sw	ra,12(sp)
D:\temp\K1921VG015\proj\Run_leds__2\Debug/../main.c:347
	static uint8_t d = 0;
	static uint8_t last_button_state = 1;
	static uint32_t last_led_update = 0;

	if (cnt_tgl_meows < 100){ cnt_tgl_meows++; }
80000faa:	ab81a703          	lw	a4,-1352(gp) # 40000238 <cnt_tgl_meows>
80000fae:	06300793          	li	a5,99
80000fb2:	0ae7e263          	bltu	a5,a4,80001056 <TMR32_IRQHandler+0xb0>
D:\temp\K1921VG015\proj\Run_leds__2\Debug/../main.c:347 (discriminator 1)
80000fb6:	ab81a783          	lw	a5,-1352(gp) # 40000238 <cnt_tgl_meows>
80000fba:	0785                	addi	a5,a5,1
80000fbc:	aaf1ac23          	sw	a5,-1352(gp) # 40000238 <cnt_tgl_meows>
D:\temp\K1921VG015\proj\Run_leds__2\Debug/../main.c:359
		//      
		//sprintf(buff, "%d %s\r\n", (int)meows_barks_counter, flag_meows ? "meow \0\0" : "bark \0\0");
		Send_buff(buff);
	}

	uint8_t x = (GPIOA->DATA & PA7_MSK) ? 0 : 1;
80000fc0:	280007b7          	lui	a5,0x28000
80000fc4:	439c                	lw	a5,0(a5)
80000fc6:	0807f793          	andi	a5,a5,128
80000fca:	0017b793          	seqz	a5,a5
D:\temp\K1921VG015\proj\Run_leds__2\Debug/../main.c:363
	static float Ysm = 1000.0f;
	const float k = 0.2f;

	Ysm = Ysm + k * (x * 1000.0f - Ysm);
80000fce:	d007f7d3          	fcvt.s.w	fa5,a5
80000fd2:	800027b7          	lui	a5,0x80002
80000fd6:	2087a687          	flw	fa3,520(a5) # 80002208 <__clz_tab+0x1d0>
80000fda:	10d7f7d3          	fmul.s	fa5,fa5,fa3
80000fde:	8841a707          	flw	fa4,-1916(gp) # 40000004 <Ysm.3>
80000fe2:	08e7f7d3          	fsub.s	fa5,fa5,fa4
80000fe6:	80002737          	lui	a4,0x80002
80000fea:	20c72607          	flw	fa2,524(a4) # 8000220c <__clz_tab+0x1d4>
80000fee:	10c7f7d3          	fmul.s	fa5,fa5,fa2
80000ff2:	00f777d3          	fadd.s	fa5,fa4,fa5
80000ff6:	88f1a227          	fsw	fa5,-1916(gp) # 40000004 <Ysm.3>
D:\temp\K1921VG015\proj\Run_leds__2\Debug/../main.c:365

	if(Ysm > 1000.0f) Ysm = 1000.0f;
80000ffa:	a0f697d3          	flt.s	a5,fa3,fa5
80000ffe:	c7c9                	beqz	a5,80001088 <TMR32_IRQHandler+0xe2>
D:\temp\K1921VG015\proj\Run_leds__2\Debug/../main.c:365 (discriminator 1)
80001000:	80002737          	lui	a4,0x80002
80001004:	20872787          	flw	fa5,520(a4) # 80002208 <__clz_tab+0x1d0>
80001008:	88f1a227          	fsw	fa5,-1916(gp) # 40000004 <Ysm.3>
D:\temp\K1921VG015\proj\Run_leds__2\Debug/../main.c:372

	// 1 , 0 
	static uint8_t button_state = 1;
	static uint8_t prev_button_state = 1;

	if (Ysm > 700)
8000100c:	8841a787          	flw	fa5,-1916(gp) # 40000004 <Ysm.3>
80001010:	800027b7          	lui	a5,0x80002
80001014:	2107a707          	flw	fa4,528(a5) # 80002210 <__clz_tab+0x1d8>
80001018:	a0f717d3          	flt.s	a5,fa4,fa5
8000101c:	cfb5                	beqz	a5,80001098 <TMR32_IRQHandler+0xf2>
D:\temp\K1921VG015\proj\Run_leds__2\Debug/../main.c:374
	{
		button_state = 1;
8000101e:	4705                	li	a4,1
80001020:	88e180a3          	sb	a4,-1919(gp) # 40000001 <button_state.2>
D:\temp\K1921VG015\proj\Run_leds__2\Debug/../main.c:382
	{
		button_state = 0;
	}


	if (button_state == 0 && prev_button_state == 1)
80001024:	8811c783          	lbu	a5,-1919(gp) # 40000001 <button_state.2>
80001028:	e791                	bnez	a5,80001034 <TMR32_IRQHandler+0x8e>
D:\temp\K1921VG015\proj\Run_leds__2\Debug/../main.c:382 (discriminator 1)
8000102a:	8801c683          	lbu	a3,-1920(gp) # 40000000 <prev_button_state.1>
8000102e:	4705                	li	a4,1
80001030:	06e68e63          	beq	a3,a4,800010ac <TMR32_IRQHandler+0x106>
D:\temp\K1921VG015\proj\Run_leds__2\Debug/../main.c:395
		{
			button_click_counter = 1;
		}
	}

	prev_button_state = button_state;
80001034:	88f18023          	sb	a5,-1920(gp) # 40000000 <prev_button_state.1>
D:\temp\K1921VG015\proj\Run_leds__2\Debug/../main.c:397

	if (last_led_update >= 30)
80001038:	ab01a783          	lw	a5,-1360(gp) # 40000230 <last_led_update.0>
8000103c:	4775                	li	a4,29
8000103e:	08f76463          	bltu	a4,a5,800010c6 <TMR32_IRQHandler+0x120>
D:\temp\K1921VG015\proj\Run_leds__2\Debug/../main.c:403
	{
		update_leds();
		// GPIOB->DATAOUTTGL = PB0_MSK;
		last_led_update = 0;
	}
	else{last_led_update++;}
80001042:	0785                	addi	a5,a5,1
80001044:	aaf1a823          	sw	a5,-1360(gp) # 40000230 <last_led_update.0>
D:\temp\K1921VG015\proj\Run_leds__2\Debug/../main.c:405

	TMR32->IC = 3;
80001048:	300007b7          	lui	a5,0x30000
8000104c:	470d                	li	a4,3
8000104e:	cbd8                	sw	a4,20(a5)
D:\temp\K1921VG015\proj\Run_leds__2\Debug/../main.c:406
}
80001050:	40b2                	lw	ra,12(sp)
80001052:	0141                	addi	sp,sp,16
80001054:	8082                	ret
80001056:	c422                	sw	s0,8(sp)
D:\temp\K1921VG015\proj\Run_leds__2\Debug/../main.c:350
		flag_meows = (flag_meows == 0) ? 1 : 0;
80001058:	8881a783          	lw	a5,-1912(gp) # 40000008 <flag_meows>
8000105c:	0017b793          	seqz	a5,a5
80001060:	88f1a423          	sw	a5,-1912(gp) # 40000008 <flag_meows>
D:\temp\K1921VG015\proj\Run_leds__2\Debug/../main.c:351
		meows_barks_counter++;
80001064:	ab41a783          	lw	a5,-1356(gp) # 40000234 <meows_barks_counter>
80001068:	0785                	addi	a5,a5,1 # 30000001 <retarget.c.918a4a7b+0x2fff6175>
8000106a:	aaf1aa23          	sw	a5,-1356(gp) # 40000234 <meows_barks_counter>
D:\temp\K1921VG015\proj\Run_leds__2\Debug/../main.c:352
		cnt_tgl_meows = 0;
8000106e:	aa01ac23          	sw	zero,-1352(gp) # 40000238 <cnt_tgl_meows>
D:\temp\K1921VG015\proj\Run_leds__2\Debug/../main.c:353
		memset(buff, 0, sizeof(buff));
80001072:	07800613          	li	a2,120
80001076:	4581                	li	a1,0
80001078:	acc18513          	addi	a0,gp,-1332 # 4000024c <buff>
8000107c:	223d                	jal	800011aa <memset>
D:\temp\K1921VG015\proj\Run_leds__2\Debug/../main.c:356
		Send_buff(buff);
8000107e:	acc18513          	addi	a0,gp,-1332 # 4000024c <buff>
80001082:	3d11                	jal	80000e96 <Send_buff>
80001084:	4422                	lw	s0,8(sp)
80001086:	bf2d                	j	80000fc0 <TMR32_IRQHandler+0x1a>
D:\temp\K1921VG015\proj\Run_leds__2\Debug/../main.c:366
	else if(Ysm < 0.0f) Ysm = 0.0f;
80001088:	f0000753          	fmv.w.x	fa4,zero
8000108c:	a0e797d3          	flt.s	a5,fa5,fa4
80001090:	dfb5                	beqz	a5,8000100c <TMR32_IRQHandler+0x66>
D:\temp\K1921VG015\proj\Run_leds__2\Debug/../main.c:366 (discriminator 1)
80001092:	8801a223          	sw	zero,-1916(gp) # 40000004 <Ysm.3>
80001096:	bf9d                	j	8000100c <TMR32_IRQHandler+0x66>
D:\temp\K1921VG015\proj\Run_leds__2\Debug/../main.c:376
	else if (Ysm < 500)
80001098:	800027b7          	lui	a5,0x80002
8000109c:	2147a707          	flw	fa4,532(a5) # 80002214 <__clz_tab+0x1dc>
800010a0:	a0e797d3          	flt.s	a5,fa5,fa4
800010a4:	d3c1                	beqz	a5,80001024 <TMR32_IRQHandler+0x7e>
D:\temp\K1921VG015\proj\Run_leds__2\Debug/../main.c:378
		button_state = 0;
800010a6:	880180a3          	sb	zero,-1919(gp) # 40000001 <button_state.2>
800010aa:	bfad                	j	80001024 <TMR32_IRQHandler+0x7e>
D:\temp\K1921VG015\proj\Run_leds__2\Debug/../main.c:385
		if(button_click_counter < (MODES_COUNT - 1))
800010ac:	88c1a703          	lw	a4,-1908(gp) # 4000000c <button_click_counter>
800010b0:	468d                	li	a3,3
800010b2:	00e6e663          	bltu	a3,a4,800010be <TMR32_IRQHandler+0x118>
D:\temp\K1921VG015\proj\Run_leds__2\Debug/../main.c:387
			button_click_counter++;
800010b6:	0705                	addi	a4,a4,1
800010b8:	88e1a623          	sw	a4,-1908(gp) # 4000000c <button_click_counter>
800010bc:	bfa5                	j	80001034 <TMR32_IRQHandler+0x8e>
D:\temp\K1921VG015\proj\Run_leds__2\Debug/../main.c:391
			button_click_counter = 1;
800010be:	4685                	li	a3,1
800010c0:	88d1a623          	sw	a3,-1908(gp) # 4000000c <button_click_counter>
800010c4:	bf85                	j	80001034 <TMR32_IRQHandler+0x8e>
D:\temp\K1921VG015\proj\Run_leds__2\Debug/../main.c:399
		update_leds();
800010c6:	36e5                	jal	80000cae <update_leds>
D:\temp\K1921VG015\proj\Run_leds__2\Debug/../main.c:401
		last_led_update = 0;
800010c8:	aa01a823          	sw	zero,-1360(gp) # 40000230 <last_led_update.0>
800010cc:	bfb5                	j	80001048 <TMR32_IRQHandler+0xa2>

800010ce <trap_handler>:
trap_handler():
D:\temp\K1921VG015\proj\Run_leds__2\Debug/../platform/source/plic.c:186
#define MCAUSE_EXCEPT_STAMOACCSFAULT    0x7
#define MCAUSE_EXCEPT_ECALLFRM_M_MODE   0xB

void trap_handler (void)
{
	uint32_t mcause_val = read_csr(mcause);
800010ce:	342027f3          	csrr	a5,mcause
D:\temp\K1921VG015\proj\Run_leds__2\Debug/../platform/source/plic.c:188

	if((mcause_val & MCAUSE_INTERRUPT_FLAG) == 0) {
800010d2:	0007c363          	bltz	a5,800010d8 <trap_handler+0xa>
D:\temp\K1921VG015\proj\Run_leds__2\Debug/../platform/source/plic.c:216
			default: // MCAUSE_EXCEPT UNKNOWN

				break;
		}

		while(1) {}; //TRAP
800010d6:	a001                	j	800010d6 <trap_handler+0x8>
D:\temp\K1921VG015\proj\Run_leds__2\Debug/../platform/source/plic.c:185
{
800010d8:	1141                	addi	sp,sp,-16
800010da:	c606                	sw	ra,12(sp)
D:\temp\K1921VG015\proj\Run_leds__2\Debug/../platform/source/plic.c:219
	} else {
		// handle interrupt
		PLIC_MachHandler();
800010dc:	a6eff0ef          	jal	8000034a <PLIC_MachHandler>
D:\temp\K1921VG015\proj\Run_leds__2\Debug/../platform/source/plic.c:221
	}
}
800010e0:	40b2                	lw	ra,12(sp)
800010e2:	0141                	addi	sp,sp,16
800010e4:	8082                	ret

800010e6 <main>:
main():
D:\temp\K1921VG015\proj\Run_leds__2\Debug/../main.c:277
{
800010e6:	1141                	addi	sp,sp,-16
800010e8:	c606                	sw	ra,12(sp)
800010ea:	c422                	sw	s0,8(sp)
D:\temp\K1921VG015\proj\Run_leds__2\Debug/../main.c:279
	periph_init();
800010ec:	3d21                	jal	80000f04 <periph_init>
D:\temp\K1921VG015\proj\Run_leds__2\Debug/../main.c:280
	TMR32_init(500000); // 50 000 000  , 500 000 10
800010ee:	0007a537          	lui	a0,0x7a
800010f2:	12050513          	addi	a0,a0,288 # 7a120 <retarget.c.918a4a7b+0x70294>
800010f6:	9cfff0ef          	jal	80000ac4 <TMR32_init>
D:\temp\K1921VG015\proj\Run_leds__2\Debug/../main.c:281
	TMR1_PWN_init(SystemCoreClock>>8);
800010fa:	ac01a503          	lw	a0,-1344(gp) # 40000240 <SystemCoreClock>
800010fe:	8121                	srli	a0,a0,0x8
80001100:	0542                	slli	a0,a0,0x10
80001102:	8141                	srli	a0,a0,0x10
80001104:	3c29                	jal	80000b1e <TMR1_PWN_init>
D:\temp\K1921VG015\proj\Run_leds__2\Debug/../main.c:282
	InterruptEnable();
80001106:	fa8ff0ef          	jal	800008ae <InterruptEnable>
D:\temp\K1921VG015\proj\Run_leds__2\Debug/../main.c:283
	led_shift = LED0_MSK;
8000110a:	10000713          	li	a4,256
8000110e:	aae1ae23          	sw	a4,-1348(gp) # 4000023c <led_shift>
D:\temp\K1921VG015\proj\Run_leds__2\Debug/../main.c:287
		ADCSAR->SEQSYNC_bit.GSYNC = 1;
80001112:	30010737          	lui	a4,0x30010
80001116:	435c                	lw	a5,4(a4)
80001118:	800006b7          	lui	a3,0x80000
8000111c:	8fd5                	or	a5,a5,a3
8000111e:	c35c                	sw	a5,4(a4)
D:\temp\K1921VG015\proj\Run_leds__2\Debug/../main.c:289 (discriminator 1)
		    while ((ADCSAR->BSTAT));
80001120:	300107b7          	lui	a5,0x30010
80001124:	47dc                	lw	a5,12(a5)
80001126:	ffed                	bnez	a5,80001120 <main+0x3a>
D:\temp\K1921VG015\proj\Run_leds__2\Debug/../main.c:290 (discriminator 1)
		    while (!(ADCSAR->RIS_bit.SEQRIS0)); //     0
80001128:	300107b7          	lui	a5,0x30010
8000112c:	539c                	lw	a5,32(a5)
8000112e:	8b85                	andi	a5,a5,1
80001130:	dfe5                	beqz	a5,80001128 <main+0x42>
D:\temp\K1921VG015\proj\Run_leds__2\Debug/../main.c:292
		    int ch_res = ADCSAR->SEQ[0].SFIFO;
80001132:	30010437          	lui	s0,0x30010
80001136:	5c38                	lw	a4,120(s0)
D:\temp\K1921VG015\proj\Run_leds__2\Debug/../main.c:294
		    int curr_voltage_mV = (ch_res * 3300) / 4095;
80001138:	6785                	lui	a5,0x1
8000113a:	ce478793          	addi	a5,a5,-796 # ce4 <STACK_SIZE+0x4e4>
8000113e:	02f70733          	mul	a4,a4,a5
80001142:	800807b7          	lui	a5,0x80080
80001146:	08178793          	addi	a5,a5,129 # 80080081 <__data_source_start+0x7de59>
8000114a:	02f717b3          	mulh	a5,a4,a5
8000114e:	97ba                	add	a5,a5,a4
80001150:	87ad                	srai	a5,a5,0xb
80001152:	877d                	srai	a4,a4,0x1f
80001154:	8f99                	sub	a5,a5,a4
D:\temp\K1921VG015\proj\Run_leds__2\Debug/../main.c:304
		    printf("  CH%d=%d.%dV\r", chn, curr_voltage_mV / 1000, (curr_voltage_mV % 1000) / 100);
80001156:	10625737          	lui	a4,0x10625
8000115a:	dd370713          	addi	a4,a4,-557 # 10624dd3 <retarget.c.918a4a7b+0x1061af47>
8000115e:	02e79733          	mulh	a4,a5,a4
80001162:	8719                	srai	a4,a4,0x6
80001164:	41f7d613          	srai	a2,a5,0x1f
80001168:	40c705b3          	sub	a1,a4,a2
8000116c:	3e800693          	li	a3,1000
80001170:	02d585b3          	mul	a1,a1,a3
80001174:	40b785b3          	sub	a1,a5,a1
80001178:	51eb86b7          	lui	a3,0x51eb8
8000117c:	51f68693          	addi	a3,a3,1311 # 51eb851f <__TLS0_BASE__+0x11e7851f>
80001180:	02d596b3          	mulh	a3,a1,a3
80001184:	8695                	srai	a3,a3,0x5
80001186:	85fd                	srai	a1,a1,0x1f
80001188:	8e8d                	sub	a3,a3,a1
8000118a:	40c70633          	sub	a2,a4,a2
8000118e:	4585                	li	a1,1
80001190:	80002537          	lui	a0,0x80002
80001194:	1e050513          	addi	a0,a0,480 # 800021e0 <__clz_tab+0x1a8>
80001198:	3b05                	jal	80000ec8 <printf>
D:\temp\K1921VG015\proj\Run_leds__2\Debug/../main.c:305
		    printf("\r");
8000119a:	80002537          	lui	a0,0x80002
8000119e:	1f050513          	addi	a0,a0,496 # 800021f0 <__clz_tab+0x1b8>
800011a2:	331d                	jal	80000ec8 <printf>
D:\temp\K1921VG015\proj\Run_leds__2\Debug/../main.c:308
		    ADCSAR->IC = ADCSAR_IC_SEQIC0_Msk; //     0
800011a4:	4785                	li	a5,1
800011a6:	d45c                	sw	a5,44(s0)
D:\temp\K1921VG015\proj\Run_leds__2\Debug/../main.c:286
	{
800011a8:	b7ad                	j	80001112 <main+0x2c>

800011aa <memset>:
memset():
800011aa:	433d                	li	t1,15
800011ac:	872a                	mv	a4,a0
800011ae:	02c37363          	bgeu	t1,a2,800011d4 <memset+0x2a>
800011b2:	00f77793          	andi	a5,a4,15
800011b6:	efbd                	bnez	a5,80001234 <memset+0x8a>
800011b8:	e5ad                	bnez	a1,80001222 <memset+0x78>
800011ba:	ff067693          	andi	a3,a2,-16
800011be:	8a3d                	andi	a2,a2,15
800011c0:	96ba                	add	a3,a3,a4
800011c2:	c30c                	sw	a1,0(a4)
800011c4:	c34c                	sw	a1,4(a4)
800011c6:	c70c                	sw	a1,8(a4)
800011c8:	c74c                	sw	a1,12(a4)
800011ca:	0741                	addi	a4,a4,16
800011cc:	fed76be3          	bltu	a4,a3,800011c2 <memset+0x18>
800011d0:	e211                	bnez	a2,800011d4 <memset+0x2a>
800011d2:	8082                	ret
800011d4:	40c306b3          	sub	a3,t1,a2
800011d8:	068a                	slli	a3,a3,0x2
800011da:	00000297          	auipc	t0,0x0
800011de:	9696                	add	a3,a3,t0
800011e0:	00a68067          	jr	10(a3)
800011e4:	00b70723          	sb	a1,14(a4)
800011e8:	00b706a3          	sb	a1,13(a4)
800011ec:	00b70623          	sb	a1,12(a4)
800011f0:	00b705a3          	sb	a1,11(a4)
800011f4:	00b70523          	sb	a1,10(a4)
800011f8:	00b704a3          	sb	a1,9(a4)
800011fc:	00b70423          	sb	a1,8(a4)
80001200:	00b703a3          	sb	a1,7(a4)
80001204:	00b70323          	sb	a1,6(a4)
80001208:	00b702a3          	sb	a1,5(a4)
8000120c:	00b70223          	sb	a1,4(a4)
80001210:	00b701a3          	sb	a1,3(a4)
80001214:	00b70123          	sb	a1,2(a4)
80001218:	00b700a3          	sb	a1,1(a4)
8000121c:	00b70023          	sb	a1,0(a4)
80001220:	8082                	ret
80001222:	0ff5f593          	zext.b	a1,a1
80001226:	00859693          	slli	a3,a1,0x8
8000122a:	8dd5                	or	a1,a1,a3
8000122c:	01059693          	slli	a3,a1,0x10
80001230:	8dd5                	or	a1,a1,a3
80001232:	b761                	j	800011ba <memset+0x10>
80001234:	00279693          	slli	a3,a5,0x2
80001238:	00000297          	auipc	t0,0x0
8000123c:	9696                	add	a3,a3,t0
8000123e:	8286                	mv	t0,ra
80001240:	fa8680e7          	jalr	-88(a3)
80001244:	8096                	mv	ra,t0
80001246:	17c1                	addi	a5,a5,-16
80001248:	8f1d                	sub	a4,a4,a5
8000124a:	963e                	add	a2,a2,a5
8000124c:	f8c374e3          	bgeu	t1,a2,800011d4 <memset+0x2a>
80001250:	b7a5                	j	800011b8 <memset+0xe>

80001252 <memcpy>:
memcpy():
80001252:	00a5c7b3          	xor	a5,a1,a0
80001256:	8b8d                	andi	a5,a5,3
80001258:	00c508b3          	add	a7,a0,a2
8000125c:	e7b1                	bnez	a5,800012a8 <memcpy+0x56>
8000125e:	478d                	li	a5,3
80001260:	04c7f463          	bgeu	a5,a2,800012a8 <memcpy+0x56>
80001264:	00357793          	andi	a5,a0,3
80001268:	872a                	mv	a4,a0
8000126a:	e7dd                	bnez	a5,80001318 <memcpy+0xc6>
8000126c:	ffc8f613          	andi	a2,a7,-4
80001270:	40e606b3          	sub	a3,a2,a4
80001274:	02000793          	li	a5,32
80001278:	04d7c463          	blt	a5,a3,800012c0 <memcpy+0x6e>
8000127c:	86ae                	mv	a3,a1
8000127e:	87ba                	mv	a5,a4
80001280:	02c77163          	bgeu	a4,a2,800012a2 <memcpy+0x50>
80001284:	0006a803          	lw	a6,0(a3)
80001288:	0791                	addi	a5,a5,4
8000128a:	0691                	addi	a3,a3,4
8000128c:	ff07ae23          	sw	a6,-4(a5)
80001290:	fec7eae3          	bltu	a5,a2,80001284 <memcpy+0x32>
80001294:	167d                	addi	a2,a2,-1
80001296:	8e19                	sub	a2,a2,a4
80001298:	9a71                	andi	a2,a2,-4
8000129a:	0591                	addi	a1,a1,4
8000129c:	0711                	addi	a4,a4,4
8000129e:	95b2                	add	a1,a1,a2
800012a0:	9732                	add	a4,a4,a2
800012a2:	01176663          	bltu	a4,a7,800012ae <memcpy+0x5c>
800012a6:	8082                	ret
800012a8:	872a                	mv	a4,a0
800012aa:	ff157ee3          	bgeu	a0,a7,800012a6 <memcpy+0x54>
800012ae:	0005c783          	lbu	a5,0(a1)
800012b2:	0705                	addi	a4,a4,1
800012b4:	0585                	addi	a1,a1,1
800012b6:	fef70fa3          	sb	a5,-1(a4)
800012ba:	fee89ae3          	bne	a7,a4,800012ae <memcpy+0x5c>
800012be:	8082                	ret
800012c0:	5194                	lw	a3,32(a1)
800012c2:	0005a383          	lw	t2,0(a1)
800012c6:	0045a283          	lw	t0,4(a1)
800012ca:	0085af83          	lw	t6,8(a1)
800012ce:	00c5af03          	lw	t5,12(a1)
800012d2:	0105ae83          	lw	t4,16(a1)
800012d6:	0145ae03          	lw	t3,20(a1)
800012da:	0185a303          	lw	t1,24(a1)
800012de:	01c5a803          	lw	a6,28(a1)
800012e2:	02470713          	addi	a4,a4,36
800012e6:	fed72e23          	sw	a3,-4(a4)
800012ea:	fc772e23          	sw	t2,-36(a4)
800012ee:	40e606b3          	sub	a3,a2,a4
800012f2:	fe572023          	sw	t0,-32(a4)
800012f6:	fff72223          	sw	t6,-28(a4)
800012fa:	ffe72423          	sw	t5,-24(a4)
800012fe:	ffd72623          	sw	t4,-20(a4)
80001302:	ffc72823          	sw	t3,-16(a4)
80001306:	fe672a23          	sw	t1,-12(a4)
8000130a:	ff072c23          	sw	a6,-8(a4)
8000130e:	02458593          	addi	a1,a1,36
80001312:	fad7c7e3          	blt	a5,a3,800012c0 <memcpy+0x6e>
80001316:	b79d                	j	8000127c <memcpy+0x2a>
80001318:	0005c683          	lbu	a3,0(a1)
8000131c:	0705                	addi	a4,a4,1
8000131e:	00377793          	andi	a5,a4,3
80001322:	fed70fa3          	sb	a3,-1(a4)
80001326:	0585                	addi	a1,a1,1
80001328:	d3b1                	beqz	a5,8000126c <memcpy+0x1a>
8000132a:	0005c683          	lbu	a3,0(a1)
8000132e:	0705                	addi	a4,a4,1
80001330:	00377793          	andi	a5,a4,3
80001334:	fed70fa3          	sb	a3,-1(a4)
80001338:	0585                	addi	a1,a1,1
8000133a:	fff9                	bnez	a5,80001318 <memcpy+0xc6>
8000133c:	bf05                	j	8000126c <memcpy+0x1a>

8000133e <__divdf3>:
__divdf3():
8000133e:	7179                	addi	sp,sp,-48
80001340:	d422                	sw	s0,40(sp)
80001342:	d04a                	sw	s2,32(sp)
80001344:	c266                	sw	s9,4(sp)
80001346:	d606                	sw	ra,44(sp)
80001348:	d226                	sw	s1,36(sp)
8000134a:	ce4e                	sw	s3,28(sp)
8000134c:	cc52                	sw	s4,24(sp)
8000134e:	ca56                	sw	s5,20(sp)
80001350:	c85a                	sw	s6,16(sp)
80001352:	c65e                	sw	s7,12(sp)
80001354:	c462                	sw	s8,8(sp)
80001356:	c06a                	sw	s10,0(sp)
80001358:	842a                	mv	s0,a0
8000135a:	8cb2                	mv	s9,a2
8000135c:	8936                	mv	s2,a3
8000135e:	00202af3          	frrm	s5
80001362:	0145d793          	srli	a5,a1,0x14
80001366:	00c59493          	slli	s1,a1,0xc
8000136a:	7ff7f793          	andi	a5,a5,2047
8000136e:	80b1                	srli	s1,s1,0xc
80001370:	01f5db13          	srli	s6,a1,0x1f
80001374:	12078863          	beqz	a5,800014a4 <__divdf3+0x166>
80001378:	7ff00713          	li	a4,2047
8000137c:	06e78d63          	beq	a5,a4,800013f6 <__divdf3+0xb8>
80001380:	048e                	slli	s1,s1,0x3
80001382:	01d55b93          	srli	s7,a0,0x1d
80001386:	009bebb3          	or	s7,s7,s1
8000138a:	00800737          	lui	a4,0x800
8000138e:	c0178a13          	addi	s4,a5,-1023
80001392:	00351c13          	slli	s8,a0,0x3
80001396:	00ebebb3          	or	s7,s7,a4
8000139a:	4481                	li	s1,0
8000139c:	4d01                	li	s10,0
8000139e:	4981                	li	s3,0
800013a0:	01495793          	srli	a5,s2,0x14
800013a4:	00c91413          	slli	s0,s2,0xc
800013a8:	7ff7f793          	andi	a5,a5,2047
800013ac:	8031                	srli	s0,s0,0xc
800013ae:	01f95913          	srli	s2,s2,0x1f
800013b2:	8666                	mv	a2,s9
800013b4:	c7ad                	beqz	a5,8000141e <__divdf3+0xe0>
800013b6:	7ff00713          	li	a4,2047
800013ba:	0ce78763          	beq	a5,a4,80001488 <__divdf3+0x14a>
800013be:	040e                	slli	s0,s0,0x3
800013c0:	01dcd713          	srli	a4,s9,0x1d
800013c4:	8f41                	or	a4,a4,s0
800013c6:	c0178793          	addi	a5,a5,-1023
800013ca:	00800437          	lui	s0,0x800
800013ce:	40fa0a33          	sub	s4,s4,a5
800013d2:	003c9613          	slli	a2,s9,0x3
800013d6:	8c59                	or	s0,s0,a4
800013d8:	4581                	li	a1,0
800013da:	47bd                	li	a5,15
800013dc:	012b4733          	xor	a4,s6,s2
800013e0:	1a97ea63          	bltu	a5,s1,80001594 <__divdf3+0x256>
800013e4:	00001697          	auipc	a3,0x1
800013e8:	c1468693          	addi	a3,a3,-1004 # 80001ff8 <_tdata_start+0x88>
800013ec:	048a                	slli	s1,s1,0x2
800013ee:	94b6                	add	s1,s1,a3
800013f0:	409c                	lw	a5,0(s1)
800013f2:	97b6                	add	a5,a5,a3
800013f4:	8782                	jr	a5
800013f6:	00a4ebb3          	or	s7,s1,a0
800013fa:	100b9c63          	bnez	s7,80001512 <__divdf3+0x1d4>
800013fe:	8a3e                	mv	s4,a5
80001400:	01495793          	srli	a5,s2,0x14
80001404:	00c91413          	slli	s0,s2,0xc
80001408:	7ff7f793          	andi	a5,a5,2047
8000140c:	4c01                	li	s8,0
8000140e:	44a1                	li	s1,8
80001410:	4d09                	li	s10,2
80001412:	4981                	li	s3,0
80001414:	8031                	srli	s0,s0,0xc
80001416:	01f95913          	srli	s2,s2,0x1f
8000141a:	8666                	mv	a2,s9
8000141c:	ffc9                	bnez	a5,800013b6 <__divdf3+0x78>
8000141e:	019467b3          	or	a5,s0,s9
80001422:	10078963          	beqz	a5,80001534 <__divdf3+0x1f6>
80001426:	38040663          	beqz	s0,800017b2 <__divdf3+0x474>
8000142a:	8522                	mv	a0,s0
8000142c:	2d5000ef          	jal	80001f00 <__clzsi2>
80001430:	87aa                	mv	a5,a0
80001432:	ff550693          	addi	a3,a0,-11
80001436:	4775                	li	a4,29
80001438:	ff878613          	addi	a2,a5,-8
8000143c:	8f15                	sub	a4,a4,a3
8000143e:	00c41433          	sll	s0,s0,a2
80001442:	00ecd733          	srl	a4,s9,a4
80001446:	8c59                	or	s0,s0,a4
80001448:	00cc9633          	sll	a2,s9,a2
8000144c:	97d2                	add	a5,a5,s4
8000144e:	3f378a13          	addi	s4,a5,1011
80001452:	4581                	li	a1,0
80001454:	b759                	j	800013da <__divdf3+0x9c>
80001456:	4781                	li	a5,0
80001458:	4401                	li	s0,0
8000145a:	4681                	li	a3,0
8000145c:	07d2                	slli	a5,a5,0x14
8000145e:	8fc1                	or	a5,a5,s0
80001460:	077e                	slli	a4,a4,0x1f
80001462:	8fd9                	or	a5,a5,a4
80001464:	8536                	mv	a0,a3
80001466:	85be                	mv	a1,a5
80001468:	10099063          	bnez	s3,80001568 <__divdf3+0x22a>
8000146c:	50b2                	lw	ra,44(sp)
8000146e:	5422                	lw	s0,40(sp)
80001470:	5492                	lw	s1,36(sp)
80001472:	5902                	lw	s2,32(sp)
80001474:	49f2                	lw	s3,28(sp)
80001476:	4a62                	lw	s4,24(sp)
80001478:	4ad2                	lw	s5,20(sp)
8000147a:	4b42                	lw	s6,16(sp)
8000147c:	4bb2                	lw	s7,12(sp)
8000147e:	4c22                	lw	s8,8(sp)
80001480:	4c92                	lw	s9,4(sp)
80001482:	4d02                	lw	s10,0(sp)
80001484:	6145                	addi	sp,sp,48
80001486:	8082                	ret
80001488:	019467b3          	or	a5,s0,s9
8000148c:	801a0a13          	addi	s4,s4,-2047
80001490:	cbc5                	beqz	a5,80001540 <__divdf3+0x202>
80001492:	000807b7          	lui	a5,0x80
80001496:	0034e493          	ori	s1,s1,3
8000149a:	458d                	li	a1,3
8000149c:	f2f47fe3          	bgeu	s0,a5,800013da <__divdf3+0x9c>
800014a0:	49c1                	li	s3,16
800014a2:	bf25                	j	800013da <__divdf3+0x9c>
800014a4:	00a4ebb3          	or	s7,s1,a0
800014a8:	080b8063          	beqz	s7,80001528 <__divdf3+0x1ea>
800014ac:	2e048663          	beqz	s1,80001798 <__divdf3+0x45a>
800014b0:	8526                	mv	a0,s1
800014b2:	24f000ef          	jal	80001f00 <__clzsi2>
800014b6:	872a                	mv	a4,a0
800014b8:	ff550793          	addi	a5,a0,-11
800014bc:	4bf5                	li	s7,29
800014be:	ff870c13          	addi	s8,a4,-8 # 7ffff8 <retarget.c.918a4a7b+0x7f616c>
800014c2:	40fb8bb3          	sub	s7,s7,a5
800014c6:	018494b3          	sll	s1,s1,s8
800014ca:	01745bb3          	srl	s7,s0,s7
800014ce:	009bebb3          	or	s7,s7,s1
800014d2:	01841c33          	sll	s8,s0,s8
800014d6:	c0d00793          	li	a5,-1011
800014da:	40e78a33          	sub	s4,a5,a4
800014de:	4481                	li	s1,0
800014e0:	4d01                	li	s10,0
800014e2:	4981                	li	s3,0
800014e4:	bd75                	j	800013a0 <__divdf3+0x62>
800014e6:	895a                	mv	s2,s6
800014e8:	845e                	mv	s0,s7
800014ea:	8662                	mv	a2,s8
800014ec:	4789                	li	a5,2
800014ee:	04fd0f63          	beq	s10,a5,8000154c <__divdf3+0x20e>
800014f2:	478d                	li	a5,3
800014f4:	06fd0d63          	beq	s10,a5,8000156e <__divdf3+0x230>
800014f8:	4785                	li	a5,1
800014fa:	3ffa0f93          	addi	t6,s4,1023
800014fe:	30fd1a63          	bne	s10,a5,80001812 <__divdf3+0x4d4>
80001502:	00197713          	andi	a4,s2,1
80001506:	4781                	li	a5,0
80001508:	4401                	li	s0,0
8000150a:	4681                	li	a3,0
8000150c:	bf81                	j	8000145c <__divdf3+0x11e>
8000150e:	8d2e                	mv	s10,a1
80001510:	bff1                	j	800014ec <__divdf3+0x1ae>
80001512:	000809b7          	lui	s3,0x80
80001516:	0134b9b3          	sltu	s3,s1,s3
8000151a:	8ba6                	mv	s7,s1
8000151c:	8c2a                	mv	s8,a0
8000151e:	8a3e                	mv	s4,a5
80001520:	0992                	slli	s3,s3,0x4
80001522:	44b1                	li	s1,12
80001524:	4d0d                	li	s10,3
80001526:	bdad                	j	800013a0 <__divdf3+0x62>
80001528:	4c01                	li	s8,0
8000152a:	4491                	li	s1,4
8000152c:	4a01                	li	s4,0
8000152e:	4d05                	li	s10,1
80001530:	4981                	li	s3,0
80001532:	b5bd                	j	800013a0 <__divdf3+0x62>
80001534:	0014e493          	ori	s1,s1,1
80001538:	4401                	li	s0,0
8000153a:	4601                	li	a2,0
8000153c:	4585                	li	a1,1
8000153e:	bd71                	j	800013da <__divdf3+0x9c>
80001540:	0024e493          	ori	s1,s1,2
80001544:	4401                	li	s0,0
80001546:	4601                	li	a2,0
80001548:	4589                	li	a1,2
8000154a:	bd41                	j	800013da <__divdf3+0x9c>
8000154c:	00197713          	andi	a4,s2,1
80001550:	7ff00793          	li	a5,2047
80001554:	4401                	li	s0,0
80001556:	4681                	li	a3,0
80001558:	b711                	j	8000145c <__divdf3+0x11e>
8000155a:	00001797          	auipc	a5,0x1
8000155e:	ca678793          	addi	a5,a5,-858 # 80002200 <__clz_tab+0x1c8>
80001562:	4388                	lw	a0,0(a5)
80001564:	43cc                	lw	a1,4(a5)
80001566:	49c1                	li	s3,16
80001568:	0019a073          	csrs	fflags,s3
8000156c:	b701                	j	8000146c <__divdf3+0x12e>
8000156e:	4701                	li	a4,0
80001570:	7ff00793          	li	a5,2047
80001574:	00080437          	lui	s0,0x80
80001578:	4681                	li	a3,0
8000157a:	b5cd                	j	8000145c <__divdf3+0x11e>
8000157c:	077e                	slli	a4,a4,0x1f
8000157e:	7ff007b7          	lui	a5,0x7ff00
80001582:	8fd9                	or	a5,a5,a4
80001584:	4701                	li	a4,0
80001586:	853a                	mv	a0,a4
80001588:	85be                	mv	a1,a5
8000158a:	0089e993          	ori	s3,s3,8
8000158e:	0019a073          	csrs	fflags,s3
80001592:	bde9                	j	8000146c <__divdf3+0x12e>
80001594:	27746363          	bltu	s0,s7,800017fa <__divdf3+0x4bc>
80001598:	248b8f63          	beq	s7,s0,800017f6 <__divdf3+0x4b8>
8000159c:	87e2                	mv	a5,s8
8000159e:	1a7d                	addi	s4,s4,-1
800015a0:	4c01                	li	s8,0
800015a2:	00841693          	slli	a3,s0,0x8
800015a6:	0106d313          	srli	t1,a3,0x10
800015aa:	026bd433          	divu	s0,s7,t1
800015ae:	01865593          	srli	a1,a2,0x18
800015b2:	8dd5                	or	a1,a1,a3
800015b4:	01059893          	slli	a7,a1,0x10
800015b8:	0108d893          	srli	a7,a7,0x10
800015bc:	00861813          	slli	a6,a2,0x8
800015c0:	0107d693          	srli	a3,a5,0x10
800015c4:	026bfbb3          	remu	s7,s7,t1
800015c8:	02888633          	mul	a2,a7,s0
800015cc:	0bc2                	slli	s7,s7,0x10
800015ce:	0176e6b3          	or	a3,a3,s7
800015d2:	00c6fb63          	bgeu	a3,a2,800015e8 <__divdf3+0x2aa>
800015d6:	96ae                	add	a3,a3,a1
800015d8:	fff40513          	addi	a0,s0,-1 # 7ffff <retarget.c.918a4a7b+0x76173>
800015dc:	28b6e663          	bltu	a3,a1,80001868 <__divdf3+0x52a>
800015e0:	28c6f463          	bgeu	a3,a2,80001868 <__divdf3+0x52a>
800015e4:	1479                	addi	s0,s0,-2
800015e6:	96ae                	add	a3,a3,a1
800015e8:	8e91                	sub	a3,a3,a2
800015ea:	0266d633          	divu	a2,a3,t1
800015ee:	07c2                	slli	a5,a5,0x10
800015f0:	83c1                	srli	a5,a5,0x10
800015f2:	0266f6b3          	remu	a3,a3,t1
800015f6:	02c88fb3          	mul	t6,a7,a2
800015fa:	06c2                	slli	a3,a3,0x10
800015fc:	8fd5                	or	a5,a5,a3
800015fe:	01f7fb63          	bgeu	a5,t6,80001614 <__divdf3+0x2d6>
80001602:	97ae                	add	a5,a5,a1
80001604:	fff60693          	addi	a3,a2,-1
80001608:	24b7ee63          	bltu	a5,a1,80001864 <__divdf3+0x526>
8000160c:	25f7fc63          	bgeu	a5,t6,80001864 <__divdf3+0x526>
80001610:	1679                	addi	a2,a2,-2
80001612:	97ae                	add	a5,a5,a1
80001614:	0442                	slli	s0,s0,0x10
80001616:	8c51                	or	s0,s0,a2
80001618:	01041693          	slli	a3,s0,0x10
8000161c:	01081e13          	slli	t3,a6,0x10
80001620:	82c1                	srli	a3,a3,0x10
80001622:	010e5e13          	srli	t3,t3,0x10
80001626:	01085e93          	srli	t4,a6,0x10
8000162a:	01045513          	srli	a0,s0,0x10
8000162e:	02de8633          	mul	a2,t4,a3
80001632:	41f787b3          	sub	a5,a5,t6
80001636:	02de0f33          	mul	t5,t3,a3
8000163a:	03c50fb3          	mul	t6,a0,t3
8000163e:	010f5693          	srli	a3,t5,0x10
80001642:	967e                	add	a2,a2,t6
80001644:	96b2                	add	a3,a3,a2
80001646:	03d50533          	mul	a0,a0,t4
8000164a:	01f6f463          	bgeu	a3,t6,80001652 <__divdf3+0x314>
8000164e:	6641                	lui	a2,0x10
80001650:	9532                	add	a0,a0,a2
80001652:	010f1f93          	slli	t6,t5,0x10
80001656:	0106d613          	srli	a2,a3,0x10
8000165a:	01069f13          	slli	t5,a3,0x10
8000165e:	010fdf93          	srli	t6,t6,0x10
80001662:	00a606b3          	add	a3,a2,a0
80001666:	9f7e                	add	t5,t5,t6
80001668:	16d7e563          	bltu	a5,a3,800017d2 <__divdf3+0x494>
8000166c:	16d78163          	beq	a5,a3,800017ce <__divdf3+0x490>
80001670:	41ec0f33          	sub	t5,s8,t5
80001674:	8f95                	sub	a5,a5,a3
80001676:	01ec3c33          	sltu	s8,s8,t5
8000167a:	418786b3          	sub	a3,a5,s8
8000167e:	3ffa0f93          	addi	t6,s4,1023
80001682:	87fe                	mv	a5,t6
80001684:	893a                	mv	s2,a4
80001686:	2ad58363          	beq	a1,a3,8000192c <__divdf3+0x5ee>
8000168a:	0266d633          	divu	a2,a3,t1
8000168e:	010f5513          	srli	a0,t5,0x10
80001692:	0266f6b3          	remu	a3,a3,t1
80001696:	02c882b3          	mul	t0,a7,a2
8000169a:	06c2                	slli	a3,a3,0x10
8000169c:	8ec9                	or	a3,a3,a0
8000169e:	0056fb63          	bgeu	a3,t0,800016b4 <__divdf3+0x376>
800016a2:	96ae                	add	a3,a3,a1
800016a4:	fff60513          	addi	a0,a2,-1 # ffff <retarget.c.918a4a7b+0x6173>
800016a8:	2cb6e663          	bltu	a3,a1,80001974 <__divdf3+0x636>
800016ac:	2c56f463          	bgeu	a3,t0,80001974 <__divdf3+0x636>
800016b0:	1679                	addi	a2,a2,-2
800016b2:	96ae                	add	a3,a3,a1
800016b4:	405686b3          	sub	a3,a3,t0
800016b8:	0266d533          	divu	a0,a3,t1
800016bc:	0f42                	slli	t5,t5,0x10
800016be:	010f5f13          	srli	t5,t5,0x10
800016c2:	0266f6b3          	remu	a3,a3,t1
800016c6:	02a888b3          	mul	a7,a7,a0
800016ca:	06c2                	slli	a3,a3,0x10
800016cc:	00df6f33          	or	t5,t5,a3
800016d0:	011f7b63          	bgeu	t5,a7,800016e6 <__divdf3+0x3a8>
800016d4:	9f2e                	add	t5,t5,a1
800016d6:	fff50693          	addi	a3,a0,-1
800016da:	28bf6b63          	bltu	t5,a1,80001970 <__divdf3+0x632>
800016de:	291f7963          	bgeu	t5,a7,80001970 <__divdf3+0x632>
800016e2:	1579                	addi	a0,a0,-2
800016e4:	9f2e                	add	t5,t5,a1
800016e6:	0642                	slli	a2,a2,0x10
800016e8:	8e49                	or	a2,a2,a0
800016ea:	01061693          	slli	a3,a2,0x10
800016ee:	82c1                	srli	a3,a3,0x10
800016f0:	01065293          	srli	t0,a2,0x10
800016f4:	02de8533          	mul	a0,t4,a3
800016f8:	411f0f33          	sub	t5,t5,a7
800016fc:	03c28333          	mul	t1,t0,t3
80001700:	03c68e33          	mul	t3,a3,t3
80001704:	951a                	add	a0,a0,t1
80001706:	010e5693          	srli	a3,t3,0x10
8000170a:	96aa                	add	a3,a3,a0
8000170c:	025e8eb3          	mul	t4,t4,t0
80001710:	0066f463          	bgeu	a3,t1,80001718 <__divdf3+0x3da>
80001714:	6541                	lui	a0,0x10
80001716:	9eaa                	add	t4,t4,a0
80001718:	0106d513          	srli	a0,a3,0x10
8000171c:	0e42                	slli	t3,t3,0x10
8000171e:	010e5e13          	srli	t3,t3,0x10
80001722:	06c2                	slli	a3,a3,0x10
80001724:	9576                	add	a0,a0,t4
80001726:	96f2                	add	a3,a3,t3
80001728:	0eaf7263          	bgeu	t5,a0,8000180c <__divdf3+0x4ce>
8000172c:	9f2e                	add	t5,t5,a1
8000172e:	88fa                	mv	a7,t5
80001730:	fff60313          	addi	t1,a2,-1
80001734:	32bf6a63          	bltu	t5,a1,80001a68 <__divdf3+0x72a>
80001738:	30af6b63          	bltu	t5,a0,80001a4e <__divdf3+0x710>
8000173c:	3eaf0a63          	beq	t5,a0,80001b30 <__divdf3+0x7f2>
80001740:	861a                	mv	a2,t1
80001742:	c0200693          	li	a3,-1022
80001746:	00166613          	ori	a2,a2,1
8000174a:	22da4763          	blt	s4,a3,80001978 <__divdf3+0x63a>
8000174e:	4689                	li	a3,2
80001750:	0019e993          	ori	s3,s3,1
80001754:	32da8b63          	beq	s5,a3,80001a8a <__divdf3+0x74c>
80001758:	468d                	li	a3,3
8000175a:	30da8b63          	beq	s5,a3,80001a70 <__divdf3+0x732>
8000175e:	360a8163          	beqz	s5,80001ac0 <__divdf3+0x782>
80001762:	00741693          	slli	a3,s0,0x7
80001766:	1a06c063          	bltz	a3,80001906 <__divdf3+0x5c8>
8000176a:	7fe00693          	li	a3,2046
8000176e:	1bf6d663          	bge	a3,t6,8000191a <__divdf3+0x5dc>
80001772:	0c0a8f63          	beqz	s5,80001850 <__divdf3+0x512>
80001776:	00100637          	lui	a2,0x100
8000177a:	167d                	addi	a2,a2,-1 # fffff <retarget.c.918a4a7b+0xf6173>
8000177c:	7fe00793          	li	a5,2046
80001780:	56fd                	li	a3,-1
80001782:	07d2                	slli	a5,a5,0x14
80001784:	8fd1                	or	a5,a5,a2
80001786:	077e                	slli	a4,a4,0x1f
80001788:	8fd9                	or	a5,a5,a4
8000178a:	8536                	mv	a0,a3
8000178c:	85be                	mv	a1,a5
8000178e:	0059e993          	ori	s3,s3,5
80001792:	0019a073          	csrs	fflags,s3
80001796:	b9d9                	j	8000146c <__divdf3+0x12e>
80001798:	27a5                	jal	80001f00 <__clzsi2>
8000179a:	01550793          	addi	a5,a0,21 # 10015 <retarget.c.918a4a7b+0x6189>
8000179e:	46f1                	li	a3,28
800017a0:	02050713          	addi	a4,a0,32
800017a4:	d0f6dce3          	bge	a3,a5,800014bc <__divdf3+0x17e>
800017a8:	1561                	addi	a0,a0,-8
800017aa:	00a41bb3          	sll	s7,s0,a0
800017ae:	4c01                	li	s8,0
800017b0:	b31d                	j	800014d6 <__divdf3+0x198>
800017b2:	8566                	mv	a0,s9
800017b4:	27b1                	jal	80001f00 <__clzsi2>
800017b6:	01550693          	addi	a3,a0,21
800017ba:	4771                	li	a4,28
800017bc:	02050793          	addi	a5,a0,32
800017c0:	c6d75be3          	bge	a4,a3,80001436 <__divdf3+0xf8>
800017c4:	1561                	addi	a0,a0,-8
800017c6:	00ac9433          	sll	s0,s9,a0
800017ca:	4601                	li	a2,0
800017cc:	b141                	j	8000144c <__divdf3+0x10e>
800017ce:	ebec71e3          	bgeu	s8,t5,80001670 <__divdf3+0x332>
800017d2:	010c0633          	add	a2,s8,a6
800017d6:	01863533          	sltu	a0,a2,s8
800017da:	00b50fb3          	add	t6,a0,a1
800017de:	97fe                	add	a5,a5,t6
800017e0:	8c32                	mv	s8,a2
800017e2:	fff40f93          	addi	t6,s0,-1
800017e6:	06f5fa63          	bgeu	a1,a5,8000185a <__divdf3+0x51c>
800017ea:	10d7e663          	bltu	a5,a3,800018f6 <__divdf3+0x5b8>
800017ee:	10f68263          	beq	a3,a5,800018f2 <__divdf3+0x5b4>
800017f2:	847e                	mv	s0,t6
800017f4:	bdb5                	j	80001670 <__divdf3+0x332>
800017f6:	dacc63e3          	bltu	s8,a2,8000159c <__divdf3+0x25e>
800017fa:	01fb9793          	slli	a5,s7,0x1f
800017fe:	001c5693          	srli	a3,s8,0x1
80001802:	001bdb93          	srli	s7,s7,0x1
80001806:	8fd5                	or	a5,a5,a3
80001808:	0c7e                	slli	s8,s8,0x1f
8000180a:	bb61                	j	800015a2 <__divdf3+0x264>
8000180c:	f2af1be3          	bne	t5,a0,80001742 <__divdf3+0x404>
80001810:	fe91                	bnez	a3,8000172c <__divdf3+0x3ee>
80001812:	87fe                	mv	a5,t6
80001814:	05f05c63          	blez	t6,8000186c <__divdf3+0x52e>
80001818:	00767713          	andi	a4,a2,7
8000181c:	48071763          	bnez	a4,80001caa <__divdf3+0x96c>
80001820:	00197713          	andi	a4,s2,1
80001824:	00741693          	slli	a3,s0,0x7
80001828:	0006d863          	bgez	a3,80001838 <__divdf3+0x4fa>
8000182c:	ff0006b7          	lui	a3,0xff000
80001830:	16fd                	addi	a3,a3,-1 # feffffff <__data_source_start+0x7effddd7>
80001832:	400a0793          	addi	a5,s4,1024
80001836:	8c75                	and	s0,s0,a3
80001838:	7fe00693          	li	a3,2046
8000183c:	0cf6df63          	bge	a3,a5,8000191a <__divdf3+0x5dc>
80001840:	4789                	li	a5,2
80001842:	26fa8663          	beq	s5,a5,80001aae <__divdf3+0x770>
80001846:	478d                	li	a5,3
80001848:	f2fa95e3          	bne	s5,a5,80001772 <__divdf3+0x434>
8000184c:	f20915e3          	bnez	s2,80001776 <__divdf3+0x438>
80001850:	7ff00793          	li	a5,2047
80001854:	4601                	li	a2,0
80001856:	4681                	li	a3,0
80001858:	b72d                	j	80001782 <__divdf3+0x444>
8000185a:	f8f59ce3          	bne	a1,a5,800017f2 <__divdf3+0x4b4>
8000185e:	d551                	beqz	a0,800017ea <__divdf3+0x4ac>
80001860:	847e                	mv	s0,t6
80001862:	b539                	j	80001670 <__divdf3+0x332>
80001864:	8636                	mv	a2,a3
80001866:	b37d                	j	80001614 <__divdf3+0x2d6>
80001868:	842a                	mv	s0,a0
8000186a:	bbbd                	j	800015e8 <__divdf3+0x2aa>
8000186c:	1a0f9063          	bnez	t6,80001a0c <__divdf3+0x6ce>
80001870:	00767713          	andi	a4,a2,7
80001874:	00165793          	srli	a5,a2,0x1
80001878:	4c071563          	bnez	a4,80001d42 <__divdf3+0xa04>
8000187c:	01845613          	srli	a2,s0,0x18
80001880:	8a05                	andi	a2,a2,1
80001882:	00164613          	xori	a2,a2,1
80001886:	4a7d                	li	s4,31
80001888:	4685                	li	a3,1
8000188a:	01441a33          	sll	s4,s0,s4
8000188e:	8fd9                	or	a5,a5,a4
80001890:	00fa67b3          	or	a5,s4,a5
80001894:	0077f713          	andi	a4,a5,7
80001898:	00d45433          	srl	s0,s0,a3
8000189c:	c779                	beqz	a4,8000196a <__divdf3+0x62c>
8000189e:	4709                	li	a4,2
800018a0:	0019e993          	ori	s3,s3,1
800018a4:	2eea8d63          	beq	s5,a4,80001b9e <__divdf3+0x860>
800018a8:	470d                	li	a4,3
800018aa:	2aea8c63          	beq	s5,a4,80001b62 <__divdf3+0x824>
800018ae:	0a0a9e63          	bnez	s5,8000196a <__divdf3+0x62c>
800018b2:	00f7f693          	andi	a3,a5,15
800018b6:	4591                	li	a1,4
800018b8:	00197713          	andi	a4,s2,1
800018bc:	00b68863          	beq	a3,a1,800018cc <__divdf3+0x58e>
800018c0:	00b786b3          	add	a3,a5,a1
800018c4:	00f6b7b3          	sltu	a5,a3,a5
800018c8:	943e                	add	s0,s0,a5
800018ca:	87b6                	mv	a5,a3
800018cc:	00841693          	slli	a3,s0,0x8
800018d0:	2e06d263          	bgez	a3,80001bb4 <__divdf3+0x876>
800018d4:	0019e993          	ori	s3,s3,1
800018d8:	1e061b63          	bnez	a2,80001ace <__divdf3+0x790>
800018dc:	01f71793          	slli	a5,a4,0x1f
800018e0:	00100737          	lui	a4,0x100
800018e4:	8fd9                	or	a5,a5,a4
800018e6:	4701                	li	a4,0
800018e8:	853a                	mv	a0,a4
800018ea:	85be                	mv	a1,a5
800018ec:	0019a073          	csrs	fflags,s3
800018f0:	beb5                	j	8000146c <__divdf3+0x12e>
800018f2:	f1e670e3          	bgeu	a2,t5,800017f2 <__divdf3+0x4b4>
800018f6:	9642                	add	a2,a2,a6
800018f8:	01063533          	sltu	a0,a2,a6
800018fc:	952e                	add	a0,a0,a1
800018fe:	1479                	addi	s0,s0,-2
80001900:	97aa                	add	a5,a5,a0
80001902:	8c32                	mv	s8,a2
80001904:	b3b5                	j	80001670 <__divdf3+0x332>
80001906:	400a0793          	addi	a5,s4,1024
8000190a:	7fe00693          	li	a3,2046
8000190e:	f2f6cce3          	blt	a3,a5,80001846 <__divdf3+0x508>
80001912:	ff0006b7          	lui	a3,0xff000
80001916:	16fd                	addi	a3,a3,-1 # feffffff <__data_source_start+0x7effddd7>
80001918:	8c75                	and	s0,s0,a3
8000191a:	01d41693          	slli	a3,s0,0x1d
8000191e:	820d                	srli	a2,a2,0x3
80001920:	0426                	slli	s0,s0,0x9
80001922:	7ff7f793          	andi	a5,a5,2047
80001926:	8ed1                	or	a3,a3,a2
80001928:	8031                	srli	s0,s0,0xc
8000192a:	be0d                	j	8000145c <__divdf3+0x11e>
8000192c:	567d                	li	a2,-1
8000192e:	e3f040e3          	bgtz	t6,8000174e <__divdf3+0x410>
80001932:	040f9a63          	bnez	t6,80001986 <__divdf3+0x648>
80001936:	800007b7          	lui	a5,0x80000
8000193a:	17fd                	addi	a5,a5,-1 # 7fffffff <__TLS0_BASE__+0x3ffbffff>
8000193c:	4709                	li	a4,2
8000193e:	0019e993          	ori	s3,s3,1
80001942:	22ea8b63          	beq	s5,a4,80001b78 <__divdf3+0x83a>
80001946:	470d                	li	a4,3
80001948:	1eea8a63          	beq	s5,a4,80001b3c <__divdf3+0x7fe>
8000194c:	2e0a8763          	beqz	s5,80001c3a <__divdf3+0x8fc>
80001950:	01845613          	srli	a2,s0,0x18
80001954:	01f41713          	slli	a4,s0,0x1f
80001958:	0017e793          	ori	a5,a5,1
8000195c:	8a05                	andi	a2,a2,1
8000195e:	8fd9                	or	a5,a5,a4
80001960:	00164613          	xori	a2,a2,1
80001964:	8005                	srli	s0,s0,0x1
80001966:	0019e993          	ori	s3,s3,1
8000196a:	00197713          	andi	a4,s2,1
8000196e:	bfb9                	j	800018cc <__divdf3+0x58e>
80001970:	8536                	mv	a0,a3
80001972:	bb95                	j	800016e6 <__divdf3+0x3a8>
80001974:	862a                	mv	a2,a0
80001976:	bb3d                	j	800016b4 <__divdf3+0x376>
80001978:	c0100793          	li	a5,-1023
8000197c:	00fa1563          	bne	s4,a5,80001986 <__divdf3+0x648>
80001980:	00165793          	srli	a5,a2,0x1
80001984:	bf65                	j	8000193c <__divdf3+0x5fe>
80001986:	4685                	li	a3,1
80001988:	41f686b3          	sub	a3,a3,t6
8000198c:	03800793          	li	a5,56
80001990:	08d7c963          	blt	a5,a3,80001a22 <__divdf3+0x6e4>
80001994:	47fd                	li	a5,31
80001996:	38d7dc63          	bge	a5,a3,80001d2e <__divdf3+0x9f0>
8000199a:	5705                	li	a4,-31
8000199c:	41f70733          	sub	a4,a4,t6
800019a0:	02000793          	li	a5,32
800019a4:	00e45733          	srl	a4,s0,a4
800019a8:	00f68763          	beq	a3,a5,800019b6 <__divdf3+0x678>
800019ac:	43ea0793          	addi	a5,s4,1086
800019b0:	00f417b3          	sll	a5,s0,a5
800019b4:	8e5d                	or	a2,a2,a5
800019b6:	00c036b3          	snez	a3,a2
800019ba:	8ed9                	or	a3,a3,a4
800019bc:	0076f793          	andi	a5,a3,7
800019c0:	cbf5                	beqz	a5,80001ab4 <__divdf3+0x776>
800019c2:	4789                	li	a5,2
800019c4:	0019e993          	ori	s3,s3,1
800019c8:	2afa8163          	beq	s5,a5,80001c6a <__divdf3+0x92c>
800019cc:	478d                	li	a5,3
800019ce:	28fa8963          	beq	s5,a5,80001c60 <__divdf3+0x922>
800019d2:	280a9163          	bnez	s5,80001c54 <__divdf3+0x916>
800019d6:	00f6f793          	andi	a5,a3,15
800019da:	4711                	li	a4,4
800019dc:	26e78c63          	beq	a5,a4,80001c54 <__divdf3+0x916>
800019e0:	00e687b3          	add	a5,a3,a4
800019e4:	00d7b6b3          	sltu	a3,a5,a3
800019e8:	838d                	srli	a5,a5,0x3
800019ea:	06f6                	slli	a3,a3,0x1d
800019ec:	8edd                	or	a3,a3,a5
800019ee:	00197713          	andi	a4,s2,1
800019f2:	4781                	li	a5,0
800019f4:	4401                	li	s0,0
800019f6:	07d2                	slli	a5,a5,0x14
800019f8:	8fc1                	or	a5,a5,s0
800019fa:	077e                	slli	a4,a4,0x1f
800019fc:	8fd9                	or	a5,a5,a4
800019fe:	8536                	mv	a0,a3
80001a00:	85be                	mv	a1,a5
80001a02:	0029e993          	ori	s3,s3,2
80001a06:	0019a073          	csrs	fflags,s3
80001a0a:	b48d                	j	8000146c <__divdf3+0x12e>
80001a0c:	4685                	li	a3,1
80001a0e:	41f686b3          	sub	a3,a3,t6
80001a12:	03800793          	li	a5,56
80001a16:	f6d7dfe3          	bge	a5,a3,80001994 <__divdf3+0x656>
80001a1a:	8e41                	or	a2,a2,s0
80001a1c:	00197713          	andi	a4,s2,1
80001a20:	ce19                	beqz	a2,80001a3e <__divdf3+0x700>
80001a22:	4789                	li	a5,2
80001a24:	0019e993          	ori	s3,s3,1
80001a28:	864a                	mv	a2,s2
80001a2a:	00fa8a63          	beq	s5,a5,80001a3e <__divdf3+0x700>
80001a2e:	478d                	li	a5,3
80001a30:	4601                	li	a2,0
80001a32:	00fa9663          	bne	s5,a5,80001a3e <__divdf3+0x700>
80001a36:	00197613          	andi	a2,s2,1
80001a3a:	00164613          	xori	a2,a2,1
80001a3e:	077e                	slli	a4,a4,0x1f
80001a40:	8532                	mv	a0,a2
80001a42:	85ba                	mv	a1,a4
80001a44:	0029e993          	ori	s3,s3,2
80001a48:	0019a073          	csrs	fflags,s3
80001a4c:	b405                	j	8000146c <__divdf3+0x12e>
80001a4e:	00181313          	slli	t1,a6,0x1
80001a52:	010338b3          	sltu	a7,t1,a6
80001a56:	98ae                	add	a7,a7,a1
80001a58:	98fa                	add	a7,a7,t5
80001a5a:	1679                	addi	a2,a2,-2
80001a5c:	881a                	mv	a6,t1
80001a5e:	cea892e3          	bne	a7,a0,80001742 <__divdf3+0x404>
80001a62:	cf0690e3          	bne	a3,a6,80001742 <__divdf3+0x404>
80001a66:	b375                	j	80001812 <__divdf3+0x4d4>
80001a68:	861a                	mv	a2,t1
80001a6a:	fea88ce3          	beq	a7,a0,80001a62 <__divdf3+0x724>
80001a6e:	b9d1                	j	80001742 <__divdf3+0x404>
80001a70:	c33d                	beqz	a4,80001ad6 <__divdf3+0x798>
80001a72:	00741713          	slli	a4,s0,0x7
80001a76:	16075c63          	bgez	a4,80001bee <__divdf3+0x8b0>
80001a7a:	400a0793          	addi	a5,s4,1024
80001a7e:	7fe00713          	li	a4,2046
80001a82:	16f75063          	bge	a4,a5,80001be2 <__divdf3+0x8a4>
80001a86:	4705                	li	a4,1
80001a88:	b3d1                	j	8000184c <__divdf3+0x50e>
80001a8a:	06091d63          	bnez	s2,80001b04 <__divdf3+0x7c6>
80001a8e:	00741713          	slli	a4,s0,0x7
80001a92:	14075263          	bgez	a4,80001bd6 <__divdf3+0x898>
80001a96:	400a0793          	addi	a5,s4,1024
80001a9a:	7fe00713          	li	a4,2046
80001a9e:	14f74063          	blt	a4,a5,80001bde <__divdf3+0x8a0>
80001aa2:	ff000737          	lui	a4,0xff000
80001aa6:	177d                	addi	a4,a4,-1 # feffffff <__data_source_start+0x7effddd7>
80001aa8:	8c79                	and	s0,s0,a4
80001aaa:	4701                	li	a4,0
80001aac:	b5bd                	j	8000191a <__divdf3+0x5dc>
80001aae:	da0911e3          	bnez	s2,80001850 <__divdf3+0x512>
80001ab2:	b1d1                	j	80001776 <__divdf3+0x438>
80001ab4:	828d                	srli	a3,a3,0x3
80001ab6:	00197713          	andi	a4,s2,1
80001aba:	4781                	li	a5,0
80001abc:	4401                	li	s0,0
80001abe:	ba79                	j	8000145c <__divdf3+0x11e>
80001ac0:	00460693          	addi	a3,a2,4
80001ac4:	00c6b633          	sltu	a2,a3,a2
80001ac8:	9432                	add	s0,s0,a2
80001aca:	8636                	mv	a2,a3
80001acc:	bba1                	j	80001824 <__divdf3+0x4e6>
80001ace:	4785                	li	a5,1
80001ad0:	4401                	li	s0,0
80001ad2:	4681                	li	a3,0
80001ad4:	b70d                	j	800019f6 <__divdf3+0x6b8>
80001ad6:	00860713          	addi	a4,a2,8
80001ada:	00c73633          	sltu	a2,a4,a2
80001ade:	9432                	add	s0,s0,a2
80001ae0:	010006b7          	lui	a3,0x1000
80001ae4:	8ee1                	and	a3,a3,s0
80001ae6:	863a                	mv	a2,a4
80001ae8:	12068a63          	beqz	a3,80001c1c <__divdf3+0x8de>
80001aec:	400a0793          	addi	a5,s4,1024
80001af0:	7fe00713          	li	a4,2046
80001af4:	faf757e3          	bge	a4,a5,80001aa2 <__divdf3+0x764>
80001af8:	4789                	li	a5,2
80001afa:	4701                	li	a4,0
80001afc:	4901                	li	s2,0
80001afe:	d4fa94e3          	bne	s5,a5,80001846 <__divdf3+0x508>
80001b02:	b995                	j	80001776 <__divdf3+0x438>
80001b04:	00860713          	addi	a4,a2,8
80001b08:	00c73633          	sltu	a2,a4,a2
80001b0c:	9432                	add	s0,s0,a2
80001b0e:	010006b7          	lui	a3,0x1000
80001b12:	8ee1                	and	a3,a3,s0
80001b14:	863a                	mv	a2,a4
80001b16:	cae5                	beqz	a3,80001c06 <__divdf3+0x8c8>
80001b18:	400a0793          	addi	a5,s4,1024
80001b1c:	7fe00713          	li	a4,2046
80001b20:	0cf75163          	bge	a4,a5,80001be2 <__divdf3+0x8a4>
80001b24:	4705                	li	a4,1
80001b26:	7ff00793          	li	a5,2047
80001b2a:	4601                	li	a2,0
80001b2c:	4681                	li	a3,0
80001b2e:	b991                	j	80001782 <__divdf3+0x444>
80001b30:	f0d86fe3          	bltu	a6,a3,80001a4e <__divdf3+0x710>
80001b34:	861a                	mv	a2,t1
80001b36:	c10696e3          	bne	a3,a6,80001742 <__divdf3+0x404>
80001b3a:	b9e1                	j	80001812 <__divdf3+0x4d4>
80001b3c:	4705                	li	a4,1
80001b3e:	12090d63          	beqz	s2,80001c78 <__divdf3+0x93a>
80001b42:	01845613          	srli	a2,s0,0x18
80001b46:	8a05                	andi	a2,a2,1
80001b48:	00164613          	xori	a2,a2,1
80001b4c:	8fd9                	or	a5,a5,a4
80001b4e:	01f41693          	slli	a3,s0,0x1f
80001b52:	0077f713          	andi	a4,a5,7
80001b56:	8005                	srli	s0,s0,0x1
80001b58:	8fd5                	or	a5,a5,a3
80001b5a:	e00708e3          	beqz	a4,8000196a <__divdf3+0x62c>
80001b5e:	0019e993          	ori	s3,s3,1
80001b62:	4705                	li	a4,1
80001b64:	d60914e3          	bnez	s2,800018cc <__divdf3+0x58e>
80001b68:	00878713          	addi	a4,a5,8
80001b6c:	00f737b3          	sltu	a5,a4,a5
80001b70:	943e                	add	s0,s0,a5
80001b72:	87ba                	mv	a5,a4
80001b74:	4701                	li	a4,0
80001b76:	bb99                	j	800018cc <__divdf3+0x58e>
80001b78:	4705                	li	a4,1
80001b7a:	10091963          	bnez	s2,80001c8c <__divdf3+0x94e>
80001b7e:	01845613          	srli	a2,s0,0x18
80001b82:	8a05                	andi	a2,a2,1
80001b84:	00164613          	xori	a2,a2,1
80001b88:	8f5d                	or	a4,a4,a5
80001b8a:	00777693          	andi	a3,a4,7
80001b8e:	01f41793          	slli	a5,s0,0x1f
80001b92:	8fd9                	or	a5,a5,a4
80001b94:	8005                	srli	s0,s0,0x1
80001b96:	dc068ae3          	beqz	a3,8000196a <__divdf3+0x62c>
80001b9a:	0019e993          	ori	s3,s3,1
80001b9e:	4701                	li	a4,0
80001ba0:	d20906e3          	beqz	s2,800018cc <__divdf3+0x58e>
80001ba4:	00878713          	addi	a4,a5,8
80001ba8:	00f737b3          	sltu	a5,a4,a5
80001bac:	943e                	add	s0,s0,a5
80001bae:	87ba                	mv	a5,a4
80001bb0:	4705                	li	a4,1
80001bb2:	bb29                	j	800018cc <__divdf3+0x58e>
80001bb4:	838d                	srli	a5,a5,0x3
80001bb6:	01d41693          	slli	a3,s0,0x1d
80001bba:	0426                	slli	s0,s0,0x9
80001bbc:	8edd                	or	a3,a3,a5
80001bbe:	8031                	srli	s0,s0,0xc
80001bc0:	4781                	li	a5,0
80001bc2:	88060de3          	beqz	a2,8000145c <__divdf3+0x11e>
80001bc6:	0019f613          	andi	a2,s3,1
80001bca:	00197713          	andi	a4,s2,1
80001bce:	4781                	li	a5,0
80001bd0:	880606e3          	beqz	a2,8000145c <__divdf3+0x11e>
80001bd4:	b50d                	j	800019f6 <__divdf3+0x6b8>
80001bd6:	7fe00713          	li	a4,2046
80001bda:	03f75f63          	bge	a4,t6,80001c18 <__divdf3+0x8da>
80001bde:	4701                	li	a4,0
80001be0:	be59                	j	80001776 <__divdf3+0x438>
80001be2:	ff000737          	lui	a4,0xff000
80001be6:	177d                	addi	a4,a4,-1 # feffffff <__data_source_start+0x7effddd7>
80001be8:	8c79                	and	s0,s0,a4
80001bea:	4705                	li	a4,1
80001bec:	b33d                	j	8000191a <__divdf3+0x5dc>
80001bee:	7fe00713          	li	a4,2046
80001bf2:	01f75863          	bge	a4,t6,80001c02 <__divdf3+0x8c4>
80001bf6:	4705                	li	a4,1
80001bf8:	bebd                	j	80001776 <__divdf3+0x438>
80001bfa:	7fe00713          	li	a4,2046
80001bfe:	fff74ce3          	blt	a4,t6,80001bf6 <__divdf3+0x8b8>
80001c02:	4705                	li	a4,1
80001c04:	bb19                	j	8000191a <__divdf3+0x5dc>
80001c06:	7fe00713          	li	a4,2046
80001c0a:	fff75ce3          	bge	a4,t6,80001c02 <__divdf3+0x8c4>
80001c0e:	4705                	li	a4,1
80001c10:	7ff00793          	li	a5,2047
80001c14:	4601                	li	a2,0
80001c16:	b6b5                	j	80001782 <__divdf3+0x444>
80001c18:	4701                	li	a4,0
80001c1a:	b301                	j	8000191a <__divdf3+0x5dc>
80001c1c:	7fe00713          	li	a4,2046
80001c20:	fff75ce3          	bge	a4,t6,80001c18 <__divdf3+0x8da>
80001c24:	4789                	li	a5,2
80001c26:	fafa8ce3          	beq	s5,a5,80001bde <__divdf3+0x8a0>
80001c2a:	478d                	li	a5,3
80001c2c:	4701                	li	a4,0
80001c2e:	b4fa92e3          	bne	s5,a5,80001772 <__divdf3+0x434>
80001c32:	7ff00793          	li	a5,2047
80001c36:	4601                	li	a2,0
80001c38:	b6a9                	j	80001782 <__divdf3+0x444>
80001c3a:	4705                	li	a4,1
80001c3c:	ffc63613          	sltiu	a2,a2,-4
80001c40:	00163613          	seqz	a2,a2
80001c44:	9622                	add	a2,a2,s0
80001c46:	8261                	srli	a2,a2,0x18
80001c48:	8a05                	andi	a2,a2,1
80001c4a:	00164613          	xori	a2,a2,1
80001c4e:	4a7d                	li	s4,31
80001c50:	4685                	li	a3,1
80001c52:	b925                	j	8000188a <__divdf3+0x54c>
80001c54:	828d                	srli	a3,a3,0x3
80001c56:	00197713          	andi	a4,s2,1
80001c5a:	4781                	li	a5,0
80001c5c:	4401                	li	s0,0
80001c5e:	bb61                	j	800019f6 <__divdf3+0x6b8>
80001c60:	04090063          	beqz	s2,80001ca0 <__divdf3+0x962>
80001c64:	828d                	srli	a3,a3,0x3
80001c66:	4401                	li	s0,0
80001c68:	bfb9                	j	80001bc6 <__divdf3+0x888>
80001c6a:	02091b63          	bnez	s2,80001ca0 <__divdf3+0x962>
80001c6e:	828d                	srli	a3,a3,0x3
80001c70:	4701                	li	a4,0
80001c72:	4781                	li	a5,0
80001c74:	4401                	li	s0,0
80001c76:	b341                	j	800019f6 <__divdf3+0x6b8>
80001c78:	ff863613          	sltiu	a2,a2,-8
80001c7c:	00163613          	seqz	a2,a2
80001c80:	9622                	add	a2,a2,s0
80001c82:	8261                	srli	a2,a2,0x18
80001c84:	8a05                	andi	a2,a2,1
80001c86:	00164613          	xori	a2,a2,1
80001c8a:	b5c9                	j	80001b4c <__divdf3+0x80e>
80001c8c:	ff863613          	sltiu	a2,a2,-8
80001c90:	00163613          	seqz	a2,a2
80001c94:	9622                	add	a2,a2,s0
80001c96:	8261                	srli	a2,a2,0x18
80001c98:	8a05                	andi	a2,a2,1
80001c9a:	00164613          	xori	a2,a2,1
80001c9e:	b5ed                	j	80001b88 <__divdf3+0x84a>
80001ca0:	00868793          	addi	a5,a3,8 # 1000008 <retarget.c.918a4a7b+0xff617c>
80001ca4:	00d7b6b3          	sltu	a3,a5,a3
80001ca8:	b381                	j	800019e8 <__divdf3+0x6aa>
80001caa:	4709                	li	a4,2
80001cac:	0019e993          	ori	s3,s3,1
80001cb0:	dcea8de3          	beq	s5,a4,80001a8a <__divdf3+0x74c>
80001cb4:	470d                	li	a4,3
80001cb6:	04ea8563          	beq	s5,a4,80001d00 <__divdf3+0x9c2>
80001cba:	020a8363          	beqz	s5,80001ce0 <__divdf3+0x9a2>
80001cbe:	00741693          	slli	a3,s0,0x7
80001cc2:	00197713          	andi	a4,s2,1
80001cc6:	0406df63          	bgez	a3,80001d24 <__divdf3+0x9e6>
80001cca:	ff0006b7          	lui	a3,0xff000
80001cce:	16fd                	addi	a3,a3,-1 # feffffff <__data_source_start+0x7effddd7>
80001cd0:	400a0793          	addi	a5,s4,1024
80001cd4:	7fe00593          	li	a1,2046
80001cd8:	8c75                	and	s0,s0,a3
80001cda:	b6f5c6e3          	blt	a1,a5,80001846 <__divdf3+0x508>
80001cde:	b935                	j	8000191a <__divdf3+0x5dc>
80001ce0:	00f67693          	andi	a3,a2,15
80001ce4:	4591                	li	a1,4
80001ce6:	00197713          	andi	a4,s2,1
80001cea:	dcb69be3          	bne	a3,a1,80001ac0 <__divdf3+0x782>
80001cee:	00741693          	slli	a3,s0,0x7
80001cf2:	c006cae3          	bltz	a3,80001906 <__divdf3+0x5c8>
80001cf6:	7fe00693          	li	a3,2046
80001cfa:	b5f6cbe3          	blt	a3,t6,80001850 <__divdf3+0x512>
80001cfe:	b931                	j	8000191a <__divdf3+0x5dc>
80001d00:	dc090be3          	beqz	s2,80001ad6 <__divdf3+0x798>
80001d04:	00741713          	slli	a4,s0,0x7
80001d08:	ee0759e3          	bgez	a4,80001bfa <__divdf3+0x8bc>
80001d0c:	ff000737          	lui	a4,0xff000
80001d10:	177d                	addi	a4,a4,-1 # feffffff <__data_source_start+0x7effddd7>
80001d12:	400a0793          	addi	a5,s4,1024
80001d16:	7fe00693          	li	a3,2046
80001d1a:	8c79                	and	s0,s0,a4
80001d1c:	4705                	li	a4,1
80001d1e:	b2f6c7e3          	blt	a3,a5,8000184c <__divdf3+0x50e>
80001d22:	bee5                	j	8000191a <__divdf3+0x5dc>
80001d24:	7fe00693          	li	a3,2046
80001d28:	b1f6cfe3          	blt	a3,t6,80001846 <__divdf3+0x508>
80001d2c:	b6fd                	j	8000191a <__divdf3+0x5dc>
80001d2e:	41ea0a13          	addi	s4,s4,1054
80001d32:	01461733          	sll	a4,a2,s4
80001d36:	00d657b3          	srl	a5,a2,a3
80001d3a:	00e03733          	snez	a4,a4
80001d3e:	4605                	li	a2,1
80001d40:	b6a9                	j	8000188a <__divdf3+0x54c>
80001d42:	00167693          	andi	a3,a2,1
80001d46:	4589                	li	a1,2
80001d48:	0019e993          	ori	s3,s3,1
80001d4c:	8736                	mv	a4,a3
80001d4e:	e2ba86e3          	beq	s5,a1,80001b7a <__divdf3+0x83c>
80001d52:	458d                	li	a1,3
80001d54:	deba85e3          	beq	s5,a1,80001b3e <__divdf3+0x800>
80001d58:	020a8363          	beqz	s5,80001d7e <__divdf3+0xa40>
80001d5c:	8edd                	or	a3,a3,a5
80001d5e:	01845613          	srli	a2,s0,0x18
80001d62:	01f41793          	slli	a5,s0,0x1f
80001d66:	8a05                	andi	a2,a2,1
80001d68:	0076f713          	andi	a4,a3,7
80001d6c:	00164613          	xori	a2,a2,1
80001d70:	8fd5                	or	a5,a5,a3
80001d72:	8005                	srli	s0,s0,0x1
80001d74:	be070be3          	beqz	a4,8000196a <__divdf3+0x62c>
80001d78:	0019e993          	ori	s3,s3,1
80001d7c:	b6fd                	j	8000196a <__divdf3+0x62c>
80001d7e:	00f67593          	andi	a1,a2,15
80001d82:	4511                	li	a0,4
80001d84:	eaa59ce3          	bne	a1,a0,80001c3c <__divdf3+0x8fe>
80001d88:	8edd                	or	a3,a3,a5
80001d8a:	01845613          	srli	a2,s0,0x18
80001d8e:	01f41793          	slli	a5,s0,0x1f
80001d92:	8a05                	andi	a2,a2,1
80001d94:	0076f713          	andi	a4,a3,7
80001d98:	00164613          	xori	a2,a2,1
80001d9c:	8fd5                	or	a5,a5,a3
80001d9e:	8005                	srli	s0,s0,0x1
80001da0:	b00719e3          	bnez	a4,800018b2 <__divdf3+0x574>
80001da4:	00197713          	andi	a4,s2,1
80001da8:	b615                	j	800018cc <__divdf3+0x58e>

80001daa <__fixdfsi>:
__fixdfsi():
80001daa:	86aa                	mv	a3,a0
80001dac:	002027f3          	frrm	a5
80001db0:	00100737          	lui	a4,0x100
80001db4:	0145d793          	srli	a5,a1,0x14
80001db8:	7ff7f513          	andi	a0,a5,2047
80001dbc:	3fe00813          	li	a6,1022
80001dc0:	fff70793          	addi	a5,a4,-1 # fffff <retarget.c.918a4a7b+0xf6173>
80001dc4:	8fed                	and	a5,a5,a1
80001dc6:	8636                	mv	a2,a3
80001dc8:	81fd                	srli	a1,a1,0x1f
80001dca:	00a84963          	blt	a6,a0,80001ddc <__fixdfsi+0x32>
80001dce:	e53d                	bnez	a0,80001e3c <__fixdfsi+0x92>
80001dd0:	8fd5                	or	a5,a5,a3
80001dd2:	cbb5                	beqz	a5,80001e46 <__fixdfsi+0x9c>
80001dd4:	4785                	li	a5,1
80001dd6:	0017a073          	csrs	fflags,a5
80001dda:	8082                	ret
80001ddc:	41d00813          	li	a6,1053
80001de0:	00a85d63          	bge	a6,a0,80001dfa <__fixdfsi+0x50>
80001de4:	c1b5                	beqz	a1,80001e48 <__fixdfsi+0x9e>
80001de6:	41e00713          	li	a4,1054
80001dea:	08e50363          	beq	a0,a4,80001e70 <__fixdfsi+0xc6>
80001dee:	80000537          	lui	a0,0x80000
80001df2:	47c1                	li	a5,16
80001df4:	0017a073          	csrs	fflags,a5
80001df8:	8082                	ret
80001dfa:	43300813          	li	a6,1075
80001dfe:	40a80833          	sub	a6,a6,a0
80001e02:	48fd                	li	a7,31
80001e04:	8f5d                	or	a4,a4,a5
80001e06:	0508d863          	bge	a7,a6,80001e56 <__fixdfsi+0xac>
80001e0a:	02000793          	li	a5,32
80001e0e:	00f80863          	beq	a6,a5,80001e1e <__fixdfsi+0x74>
80001e12:	c0d50793          	addi	a5,a0,-1011 # 7ffffc0d <__TLS0_BASE__+0x3ffbfc0d>
80001e16:	00f717b3          	sll	a5,a4,a5
80001e1a:	00d7e633          	or	a2,a5,a3
80001e1e:	41300793          	li	a5,1043
80001e22:	40a786b3          	sub	a3,a5,a0
80001e26:	00d75533          	srl	a0,a4,a3
80001e2a:	00c037b3          	snez	a5,a2
80001e2e:	c199                	beqz	a1,80001e34 <__fixdfsi+0x8a>
80001e30:	40a00533          	neg	a0,a0
80001e34:	d3dd                	beqz	a5,80001dda <__fixdfsi+0x30>
80001e36:	0017a073          	csrs	fflags,a5
80001e3a:	8082                	ret
80001e3c:	4501                	li	a0,0
80001e3e:	4785                	li	a5,1
80001e40:	0017a073          	csrs	fflags,a5
80001e44:	8082                	ret
80001e46:	8082                	ret
80001e48:	80000537          	lui	a0,0x80000
80001e4c:	157d                	addi	a0,a0,-1 # 7fffffff <__TLS0_BASE__+0x3ffbffff>
80001e4e:	47c1                	li	a5,16
80001e50:	0017a073          	csrs	fflags,a5
80001e54:	8082                	ret
80001e56:	bed50793          	addi	a5,a0,-1043
80001e5a:	00f71733          	sll	a4,a4,a5
80001e5e:	00f697b3          	sll	a5,a3,a5
80001e62:	0106d6b3          	srl	a3,a3,a6
80001e66:	00f037b3          	snez	a5,a5
80001e6a:	00d76533          	or	a0,a4,a3
80001e6e:	b7c1                	j	80001e2e <__fixdfsi+0x84>
80001e70:	07ae                	slli	a5,a5,0xb
80001e72:	0156d713          	srli	a4,a3,0x15
80001e76:	8fd9                	or	a5,a5,a4
80001e78:	fbbd                	bnez	a5,80001dee <__fixdfsi+0x44>
80001e7a:	06ae                	slli	a3,a3,0xb
80001e7c:	e681                	bnez	a3,80001e84 <__fixdfsi+0xda>
80001e7e:	80000537          	lui	a0,0x80000
80001e82:	8082                	ret
80001e84:	87ae                	mv	a5,a1
80001e86:	80000537          	lui	a0,0x80000
80001e8a:	0017a073          	csrs	fflags,a5
80001e8e:	8082                	ret

80001e90 <__floatunsidf>:
__floatunsidf():
80001e90:	1141                	addi	sp,sp,-16
80001e92:	c422                	sw	s0,8(sp)
80001e94:	c606                	sw	ra,12(sp)
80001e96:	842a                	mv	s0,a0
80001e98:	cd05                	beqz	a0,80001ed0 <__floatunsidf+0x40>
80001e9a:	209d                	jal	80001f00 <__clzsi2>
80001e9c:	41e00793          	li	a5,1054
80001ea0:	8f89                	sub	a5,a5,a0
80001ea2:	4729                	li	a4,10
80001ea4:	7ff7f793          	andi	a5,a5,2047
80001ea8:	02a74e63          	blt	a4,a0,80001ee4 <__floatunsidf+0x54>
80001eac:	472d                	li	a4,11
80001eae:	8f09                	sub	a4,a4,a0
80001eb0:	01550693          	addi	a3,a0,21 # 80000015 <__TEXT_INIT_START__+0x15>
80001eb4:	00e45733          	srl	a4,s0,a4
80001eb8:	00d41433          	sll	s0,s0,a3
80001ebc:	40b2                	lw	ra,12(sp)
80001ebe:	8522                	mv	a0,s0
80001ec0:	0732                	slli	a4,a4,0xc
80001ec2:	4422                	lw	s0,8(sp)
80001ec4:	8331                	srli	a4,a4,0xc
80001ec6:	07d2                	slli	a5,a5,0x14
80001ec8:	8fd9                	or	a5,a5,a4
80001eca:	85be                	mv	a1,a5
80001ecc:	0141                	addi	sp,sp,16
80001ece:	8082                	ret
80001ed0:	40b2                	lw	ra,12(sp)
80001ed2:	8522                	mv	a0,s0
80001ed4:	4781                	li	a5,0
80001ed6:	4422                	lw	s0,8(sp)
80001ed8:	4701                	li	a4,0
80001eda:	07d2                	slli	a5,a5,0x14
80001edc:	8fd9                	or	a5,a5,a4
80001ede:	85be                	mv	a1,a5
80001ee0:	0141                	addi	sp,sp,16
80001ee2:	8082                	ret
80001ee4:	1555                	addi	a0,a0,-11
80001ee6:	00a41733          	sll	a4,s0,a0
80001eea:	4401                	li	s0,0
80001eec:	40b2                	lw	ra,12(sp)
80001eee:	8522                	mv	a0,s0
80001ef0:	0732                	slli	a4,a4,0xc
80001ef2:	4422                	lw	s0,8(sp)
80001ef4:	8331                	srli	a4,a4,0xc
80001ef6:	07d2                	slli	a5,a5,0x14
80001ef8:	8fd9                	or	a5,a5,a4
80001efa:	85be                	mv	a1,a5
80001efc:	0141                	addi	sp,sp,16
80001efe:	8082                	ret

80001f00 <__clzsi2>:
__clzsi2():
80001f00:	67c1                	lui	a5,0x10
80001f02:	02f57663          	bgeu	a0,a5,80001f2e <__clzsi2+0x2e>
80001f06:	10053793          	sltiu	a5,a0,256
80001f0a:	0017b793          	seqz	a5,a5
80001f0e:	078e                	slli	a5,a5,0x3
80001f10:	02000713          	li	a4,32
80001f14:	8f1d                	sub	a4,a4,a5
80001f16:	00f55533          	srl	a0,a0,a5
80001f1a:	00000797          	auipc	a5,0x0
80001f1e:	11e78793          	addi	a5,a5,286 # 80002038 <__clz_tab>
80001f22:	97aa                	add	a5,a5,a0
80001f24:	0007c503          	lbu	a0,0(a5)
80001f28:	40a70533          	sub	a0,a4,a0
80001f2c:	8082                	ret
80001f2e:	010007b7          	lui	a5,0x1000
80001f32:	02f57063          	bgeu	a0,a5,80001f52 <__clzsi2+0x52>
80001f36:	4741                	li	a4,16
80001f38:	87ba                	mv	a5,a4
80001f3a:	00f55533          	srl	a0,a0,a5
80001f3e:	00000797          	auipc	a5,0x0
80001f42:	0fa78793          	addi	a5,a5,250 # 80002038 <__clz_tab>
80001f46:	97aa                	add	a5,a5,a0
80001f48:	0007c503          	lbu	a0,0(a5)
80001f4c:	40a70533          	sub	a0,a4,a0
80001f50:	8082                	ret
80001f52:	47e1                	li	a5,24
80001f54:	00f55533          	srl	a0,a0,a5
80001f58:	00000797          	auipc	a5,0x0
80001f5c:	0e078793          	addi	a5,a5,224 # 80002038 <__clz_tab>
80001f60:	97aa                	add	a5,a5,a0
80001f62:	0007c503          	lbu	a0,0(a5)
80001f66:	4721                	li	a4,8
80001f68:	40a70533          	sub	a0,a4,a0
80001f6c:	8082                	ret
