
Run_leds__2.elf:     file format elf32-littleriscv
Run_leds__2.elf
architecture: riscv:rv32, flags 0x00000112:
EXEC_P, HAS_SYMS, D_PAGED
start address 0x80000000

Program Header:
0x70000003 off    0x00034f03 vaddr 0x00000000 paddr 0x00000000 align 2**0
         filesz 0x00000041 memsz 0x00000000 flags r--
    LOAD off    0x00000000 vaddr 0x4003f000 paddr 0x4003f000 align 2**12
         filesz 0x000000d4 memsz 0x00001000 flags rw-
    LOAD off    0x00001000 vaddr 0x80000000 paddr 0x80000000 align 2**12
         filesz 0x0000079a memsz 0x0000079a flags r-x
    LOAD off    0x00002000 vaddr 0x40000000 paddr 0x8000079c align 2**12
         filesz 0x00000080 memsz 0x00000090 flags rw-
   STACK off    0x00000000 vaddr 0x00000000 paddr 0x00000000 align 2**4
         filesz 0x00000000 memsz 0x00000000 flags rw-

Sections:
Idx Name              Size      VMA       LMA       File off  Algn  Flags
  0 .text.startup     00000102  80000000  80000000  00001000  2**1  CONTENTS, ALLOC, LOAD, READONLY, CODE
  1 .text.crt         00000184  80000140  80000140  00001140  2**6  CONTENTS, ALLOC, LOAD, READONLY, CODE
  2 .text             000004d6  800002c4  800002c4  000012c4  2**2  CONTENTS, ALLOC, LOAD, READONLY, CODE
  3 .tbss             00000000  8000079c  8000079c  00000000  2**2  ALLOC, THREAD_LOCAL
  4 .data             00000080  40000000  8000079c  00002000  2**2  CONTENTS, ALLOC, LOAD, DATA
  5 .sbss             00000010  40000080  8000081c  00002080  2**2  ALLOC
  6 .bss              00000000  40000090  8000082c  00000000  2**2  ALLOC
  7 .stack            00000800  4003f800  4003f800  00000800  2**0  ALLOC
  8 .debug_info       00006af8  00000000  00000000  00002080  2**0  CONTENTS, READONLY, DEBUGGING, OCTETS
  9 .debug_abbrev     00000728  00000000  00000000  00008b78  2**0  CONTENTS, READONLY, DEBUGGING, OCTETS
 10 .debug_loclists   0000012e  00000000  00000000  000092a0  2**0  CONTENTS, READONLY, DEBUGGING, OCTETS
 11 .debug_aranges    000000a8  00000000  00000000  000093d0  2**3  CONTENTS, READONLY, DEBUGGING, OCTETS
 12 .debug_rnglists   00000079  00000000  00000000  00009478  2**0  CONTENTS, READONLY, DEBUGGING, OCTETS
 13 .debug_line       00000d8c  00000000  00000000  000094f1  2**0  CONTENTS, READONLY, DEBUGGING, OCTETS
 14 .debug_str        0002a931  00000000  00000000  0000a27d  2**0  CONTENTS, READONLY, DEBUGGING, OCTETS
 15 .debug_line_str   00000343  00000000  00000000  00034bae  2**0  CONTENTS, READONLY, DEBUGGING, OCTETS
 16 .comment          00000012  00000000  00000000  00034ef1  2**0  CONTENTS, READONLY
 17 .riscv.attributes 00000041  00000000  00000000  00034f03  2**0  CONTENTS, READONLY
 18 .debug_frame      00000134  00000000  00000000  00034f44  2**2  CONTENTS, READONLY, DEBUGGING, OCTETS
 19 .debug_macro      00009333  00000000  00000000  00035078  2**0  CONTENTS, READONLY, DEBUGGING, OCTETS
SYMBOL TABLE:
80000000 l    d  .text.startup	00000000 .text.startup
80000140 l    d  .text.crt	00000000 .text.crt
800002c4 l    d  .text	00000000 .text
8000079c l    d  .tbss	00000000 .tbss
40000000 l    d  .data	00000000 .data
40000080 l    d  .sbss	00000000 .sbss
40000090 l    d  .bss	00000000 .bss
4003f800 l    d  .stack	00000000 .stack
00000000 l    d  .debug_info	00000000 .debug_info
00000000 l    d  .debug_abbrev	00000000 .debug_abbrev
00000000 l    d  .debug_loclists	00000000 .debug_loclists
00000000 l    d  .debug_aranges	00000000 .debug_aranges
00000000 l    d  .debug_rnglists	00000000 .debug_rnglists
00000000 l    d  .debug_line	00000000 .debug_line
00000000 l    d  .debug_str	00000000 .debug_str
00000000 l    d  .debug_line_str	00000000 .debug_line_str
00000000 l    d  .comment	00000000 .comment
00000000 l    d  .riscv.attributes	00000000 .riscv.attributes
00000000 l    d  .debug_frame	00000000 .debug_frame
00000000 l    d  .debug_macro	00000000 .debug_macro
00000000 l    df *ABS*	00000000 startup_k1921vg015.o
800002c4 l     F .text	00000012 PLIC_ClaimIrq
800002d6 l     F .text	00000012 PLIC_ClaimComplete
800002e8 l     F .text	00000012 PLIC_SetThreshold
800002fa l     F .text	0000002e PLIC_MachHandler
40000000 l     O .data	00000080 mach_plic_handler
80000328 l     F .text	000000dc SystemCoreClockUpdate
4000008c l     O .sbss	00000004 SystemPll0Clock
40000088 l     O .sbss	00000004 SystemPll1Clock
40000084 l     O .sbss	00000004 SystemCoreClock
80000404 l     F .text	000000e6 ClkInit
800004ea l     F .text	00000026 InterruptEnable
80000510 l     F .text	0000000c SystemInit
8000051c l     F .text	00000098 UART1_init
800005b4 l     F .text	00000010 periph_init
800000b0 l     F .text.startup	00000052 plf_init_generic
40000080 l     O .sbss	00000004 led_shift
00000000 l    df *ABS*	00000000 libc_a-memset.o
00000000 l    df *ABS*	00000000 libc_a-memcpy.o
00000800 g       *ABS*	00000000 STACK_SIZE
40000780 g       *ABS*	00000000 __global_pointer$
40040000 g       .stack	00000000 __TLS0_BASE__
8000008c g       .text.startup	00000000 _hart_halt
40000000 g       .tbss	00000000 __SDATA_BEGIN__
800006ae g     F .text	000000ec memcpy
40000000 g       .tbss	00000000 __sdata_target_end
4003f800 g       *ABS*	00000000 _heap_end
40000090 g       .bss	00000000 __bss_end
800000a0  w      .text.startup	00000000 abort
40000080 g       .data	00000000 __data_target_end
40000090 g       *ABS*	00000000 _heap_start
800005c4 g     F .text	00000016 trap_handler
80000000 g       *ABS*	00000000 __TEXT_INIT_START__
80000000 g       .text.startup	00000000 _start
8000079c g       *ABS*	00000000 __sdata_source_start
00000333  w      .debug_info	00000000 .hidden plic.c.21d8f78f
40000090 g       .bss	00000000 __BSS_END__
00000102 g       *ABS*	00000000 __TEXT_INIT_SIZE__
800000a4  w      .text.startup	00000000 app_init
40000080 g       .sbss	00000000 __bss_start
80000606 g     F .text	000000a8 memset
800005da g     F .text	0000002c main
80000140  w    F .text.crt	0000014c trap_entry
40000000 g       .data	00000000 __data_target_start
000033b1  w      .debug_info	00000000 .hidden main.c.fafdc48c
40000000 g       .tbss	00000000 __sdata_target_start
800000b0 g     F .text.startup	00000052 plf_init
40000000 g       .data	00000000 __DATA_BEGIN__
0000082f  w      .debug_info	00000000 .hidden system_k1921vg015.c.08e00f8f
40000080 g       .data	00000000 _edata
8000009c  w      .text.startup	00000000 exit
8000079c g       .text	00000000 _tdata_start
000006d1  w      .debug_info	00000000 .hidden sys_init.c.d9db5e6f
8000079c g       .tbss	00000000 _tbss_end
00000000 g       *ABS*	00000000 __TLS_SIZE__
8000079c g       *ABS*	00000000 __data_source_start
4003f800 g       .stack	00000000 __STACK_START__



Disassembly of section .text.startup:

80000000 <_start>:
_start():
D:\temp\K1921VG015\proj\Run_leds__2\Debug/../platform/source/startup_k1921vg015.S:22
    .section ".startup.entry","ax",@progbits

    ## Entry point
_start:
    ## reset mstatus
    csrw  mstatus, zero
80000000:	30001073          	csrw	mstatus,zero
D:\temp\K1921VG015\proj\Run_leds__2\Debug/../platform/source/startup_k1921vg015.S:24
    ## reset PMURTC->RTC_HISTORY
    lui     s1,0x38011
80000004:	380114b7          	lui	s1,0x38011
D:\temp\K1921VG015\proj\Run_leds__2\Debug/../platform/source/startup_k1921vg015.S:25
    sw      zero,8(s1) 
80000008:	0004a423          	sw	zero,8(s1) # 38011008 <main.c.fafdc48c+0x3800dc57>
D:\temp\K1921VG015\proj\Run_leds__2\Debug/../platform/source/startup_k1921vg015.S:34
    init_regs_const 16, 31, 0
#endif // !__riscv_32e
#endif // PLF_INIT_REGS

    ## setup gp
    load_addrword_abs gp, __global_pointer$
8000000c:	400001b7          	lui	gp,0x40000
80000010:	78018193          	addi	gp,gp,1920 # 40000780 <__global_pointer$>
D:\temp\K1921VG015\proj\Run_leds__2\Debug/../platform/source/startup_k1921vg015.S:36
    ## setup MTVEC
    load_addrword_abs t0, trap_entry
80000014:	800002b7          	lui	t0,0x80000
80000018:	14028293          	addi	t0,t0,320 # 80000140 <trap_entry>
D:\temp\K1921VG015\proj\Run_leds__2\Debug/../platform/source/startup_k1921vg015.S:37
    csrw  mtvec, t0
8000001c:	30529073          	csrw	mtvec,t0
D:\temp\K1921VG015\proj\Run_leds__2\Debug/../platform/source/startup_k1921vg015.S:41
    ## setup MIE, MIP


    csrw  mie, zero
80000020:	30401073          	csrw	mie,zero
D:\temp\K1921VG015\proj\Run_leds__2\Debug/../platform/source/startup_k1921vg015.S:42
    csrw  mip, zero
80000024:	34401073          	csrw	mip,zero
D:\temp\K1921VG015\proj\Run_leds__2\Debug/../platform/source/startup_k1921vg015.S:52
    load_const_int32 t1, __TEXT_INIT_SIZE__
    cache_flush t0, t1
#endif // PLF_CACHE_CFG

    ## init FPU (if supported)
    csrr  a0, misa
80000028:	30102573          	csrr	a0,misa
D:\temp\K1921VG015\proj\Run_leds__2\Debug/../platform/source/startup_k1921vg015.S:53
    andi  a0, a0, (1 << ('F' - 'A')) | (1 << ('D' - 'A'))
8000002c:	02857513          	andi	a0,a0,40
D:\temp\K1921VG015\proj\Run_leds__2\Debug/../platform/source/startup_k1921vg015.S:54
    beqz  a0, 1f
80000030:	00050863          	beqz	a0,80000040 <_start+0x40>
D:\temp\K1921VG015\proj\Run_leds__2\Debug/../platform/source/startup_k1921vg015.S:55
    li    a0, (1 << 13) // mstatus.FS = 1 (initial)
80000034:	00002537          	lui	a0,0x2
D:\temp\K1921VG015\proj\Run_leds__2\Debug/../platform/source/startup_k1921vg015.S:56
    csrs  mstatus, a0
80000038:	30052073          	csrs	mstatus,a0
D:\temp\K1921VG015\proj\Run_leds__2\Debug/../platform/source/startup_k1921vg015.S:57
    csrw  fcsr, zero
8000003c:	00301073          	fscsr	zero
D:\temp\K1921VG015\proj\Run_leds__2\Debug/../platform/source/startup_k1921vg015.S:67
#else
#define slave_hart_start _hart_halt
#endif // PLF_SMP_SUPPORT

    ## park/prep SMP slaves
    csrr  a0, mhartid
80000040:	f1402573          	csrr	a0,mhartid
D:\temp\K1921VG015\proj\Run_leds__2\Debug/../platform/source/startup_k1921vg015.S:76
#if PLF_SMP_MASTER_HARTID > 0
    li    t0, PLF_SMP_MASTER_HARTID
    bne   a0, t0, slave_hart_start
#endif // PLF_SMP_MASTER_HARTID > 0
#else // PLF_SMP_MASTER_HARTID
    bnez  a0, slave_hart_start
80000044:	04051463          	bnez	a0,8000008c <_hart_halt>
D:\temp\K1921VG015\proj\Run_leds__2\Debug/../platform/source/startup_k1921vg015.S:80
#endif // PLF_SMP_MASTER_HARTID

    ## init HART#0 sp, tp
    load_addrword_abs sp, __TLS0_BASE__
80000048:	40040137          	lui	sp,0x40040
8000004c:	00010113          	mv	sp,sp
D:\temp\K1921VG015\proj\Run_leds__2\Debug/../platform/source/startup_k1921vg015.S:81
    mv    tp, sp
80000050:	00010213          	mv	tp,sp
D:\temp\K1921VG015\proj\Run_leds__2\Debug/../platform/source/startup_k1921vg015.S:82
    csrw  mscratch, sp
80000054:	34011073          	csrw	mscratch,sp
D:\temp\K1921VG015\proj\Run_leds__2\Debug/../platform/source/startup_k1921vg015.S:89
    // reserve trap stack space
    li    t0, PLF_TRAP_STACK
    sub   sp, sp, t0
#endif // PLF_TRAP_STACK
    ## platform init
    load_addrword t0, plf_init
80000058:	800002b7          	lui	t0,0x80000
8000005c:	0b028293          	addi	t0,t0,176 # 800000b0 <plf_init>
D:\temp\K1921VG015\proj\Run_leds__2\Debug/../platform/source/startup_k1921vg015.S:90
    jalr  t0
80000060:	000280e7          	jalr	t0
D:\temp\K1921VG015\proj\Run_leds__2\Debug/../platform/source/startup_k1921vg015.S:93
    ## jal  plf_init
    ## application-specific initialization hook
    load_addrword t0, app_init
80000064:	800002b7          	lui	t0,0x80000
80000068:	0a428293          	addi	t0,t0,164 # 800000a4 <app_init>
D:\temp\K1921VG015\proj\Run_leds__2\Debug/../platform/source/startup_k1921vg015.S:94
    jalr  t0
8000006c:	000280e7          	jalr	t0
D:\temp\K1921VG015\proj\Run_leds__2\Debug/../platform/source/startup_k1921vg015.S:97
    ## jal  app_init
    ## main() args
    li    a0, 0
80000070:	00000513          	li	a0,0
D:\temp\K1921VG015\proj\Run_leds__2\Debug/../platform/source/startup_k1921vg015.S:98
    li    a1, 0
80000074:	00000593          	li	a1,0
D:\temp\K1921VG015\proj\Run_leds__2\Debug/../platform/source/startup_k1921vg015.S:110
#if PLF_SMP_NON_COHERENT
    clflush t1
#endif // PLF_SMP_NON_COHERENT
#endif // PLF_SMP_SUPPORT
    ## start main
    load_addrword t0, main
80000078:	800002b7          	lui	t0,0x80000
8000007c:	5da28293          	addi	t0,t0,1498 # 800005da <main>
D:\temp\K1921VG015\proj\Run_leds__2\Debug/../platform/source/startup_k1921vg015.S:111
    load_addrword ra, exit
80000080:	800000b7          	lui	ra,0x80000
80000084:	09c08093          	addi	ra,ra,156 # 8000009c <exit>
D:\temp\K1921VG015\proj\Run_leds__2\Debug/../platform/source/startup_k1921vg015.S:112
    jr    t0
80000088:	00028067          	jr	t0

8000008c <_hart_halt>:
_hart_halt():
D:\temp\K1921VG015\proj\Run_leds__2\Debug/../platform/source/startup_k1921vg015.S:159
1:  wfi
    j     1b
#endif // PLF_SMP_SUPPORT
#else // PLF_HTIF_BASE
    ## disable interrupts
    csrci mstatus, 0xf
8000008c:	3007f073          	csrci	mstatus,15
D:\temp\K1921VG015\proj\Run_leds__2\Debug/../platform/source/startup_k1921vg015.S:160
    csrw  mie, zero
80000090:	30401073          	csrw	mie,zero
D:\temp\K1921VG015\proj\Run_leds__2\Debug/../platform/source/startup_k1921vg015.S:161
1:  wfi
80000094:	10500073          	wfi
D:\temp\K1921VG015\proj\Run_leds__2\Debug/../platform/source/startup_k1921vg015.S:162
    j     1b
80000098:	ffdff06f          	j	80000094 <_hart_halt+0x8>

8000009c <exit>:
exit():
D:\temp\K1921VG015\proj\Run_leds__2\Debug/../platform/source/startup_k1921vg015.S:166
#endif // PLF_HTIF_BASE

exit:
    nop
8000009c:	00000013          	nop

800000a0 <abort>:
abort():
D:\temp\K1921VG015\proj\Run_leds__2\Debug/../platform/source/startup_k1921vg015.S:168
abort:
    j     _hart_halt
800000a0:	fedff06f          	j	8000008c <_hart_halt>

800000a4 <app_init>:
app_init():
D:\temp\K1921VG015\proj\Run_leds__2\Debug/../platform/source/startup_k1921vg015.S:216
    jr    t0
#endif // PLF_SMP_SUPPORT

    ## stubs
app_init:
    ret
800000a4:	00008067          	ret
	...

800000b0 <plf_init>:
plf_init_generic():
D:\temp\K1921VG015\proj\Run_leds__2\Debug/../platform/source/sys_init.c:30
{
    // do nothing
}

void __init plf_init_generic(void)
{
800000b0:	1141                	addi	sp,sp,-16 # 4003fff0 <__STACK_START__+0x7f0>
800000b2:	c606                	sw	ra,12(sp)
D:\temp\K1921VG015\proj\Run_leds__2\Debug/../platform/source/sys_init.c:32
    // init BSS
    memset(__bss_start, 0, (size_t)(__bss_end - __bss_start));
800000b4:	90018613          	addi	a2,gp,-1792 # 40000080 <led_shift>
800000b8:	91018793          	addi	a5,gp,-1776 # 40000090 <__BSS_END__>
800000bc:	40c78633          	sub	a2,a5,a2
800000c0:	4581                	li	a1,0
800000c2:	90018513          	addi	a0,gp,-1792 # 40000080 <led_shift>
800000c6:	2381                	jal	80000606 <memset>
D:\temp\K1921VG015\proj\Run_leds__2\Debug/../platform/source/sys_init.c:36

    memcpy((void*)&__data_target_start,
           (const void*)&__data_source_start,
           (&__data_target_end - &__data_target_start));
800000c8:	88018613          	addi	a2,gp,-1920 # 40000000 <mach_plic_handler>
D:\temp\K1921VG015\proj\Run_leds__2\Debug/../platform/source/sys_init.c:34
    memcpy((void*)&__data_target_start,
800000cc:	90018793          	addi	a5,gp,-1792 # 40000080 <led_shift>
800000d0:	40c78633          	sub	a2,a5,a2
800000d4:	800005b7          	lui	a1,0x80000
800000d8:	79c58593          	addi	a1,a1,1948 # 8000079c <__data_source_start>
800000dc:	88018513          	addi	a0,gp,-1920 # 40000000 <mach_plic_handler>
800000e0:	23f9                	jal	800006ae <memcpy>
D:\temp\K1921VG015\proj\Run_leds__2\Debug/../platform/source/sys_init.c:40

    memcpy((void*)&__sdata_target_start,
              (const void*)&__sdata_source_start,
              (&__sdata_target_end - &__sdata_target_start));
800000e2:	88018613          	addi	a2,gp,-1920 # 40000000 <mach_plic_handler>
D:\temp\K1921VG015\proj\Run_leds__2\Debug/../platform/source/sys_init.c:38
    memcpy((void*)&__sdata_target_start,
800000e6:	88018793          	addi	a5,gp,-1920 # 40000000 <mach_plic_handler>
800000ea:	40c78633          	sub	a2,a5,a2
800000ee:	800005b7          	lui	a1,0x80000
800000f2:	79c58593          	addi	a1,a1,1948 # 8000079c <__data_source_start>
800000f6:	88018513          	addi	a0,gp,-1920 # 40000000 <mach_plic_handler>
800000fa:	2b55                	jal	800006ae <memcpy>
D:\temp\K1921VG015\proj\Run_leds__2\Debug/../platform/source/sys_init.c:41
}
800000fc:	40b2                	lw	ra,12(sp)
800000fe:	0141                	addi	sp,sp,16
80000100:	8082                	ret

Disassembly of section .text.crt:

80000140 <trap_entry>:
trap_entry():
D:\temp\K1921VG015\proj\Run_leds__2\Debug/../platform/source/startup_k1921vg015.S:250
    .section ".text.crt.trap_entry","ax",@progbits
    .align 6
    .type trap_entry, @function
trap_entry:
    ## save context
    context_save
80000140:	fe512e23          	sw	t0,-4(sp)
80000144:	00010293          	mv	t0,sp
80000148:	f8010113          	addi	sp,sp,-128
8000014c:	ff017113          	andi	sp,sp,-16
80000150:	00112223          	sw	ra,4(sp)
80000154:	00512423          	sw	t0,8(sp)
80000158:	ffc2a283          	lw	t0,-4(t0)
8000015c:	00312623          	sw	gp,12(sp)
80000160:	00412823          	sw	tp,16(sp)
80000164:	00512a23          	sw	t0,20(sp)
80000168:	00612c23          	sw	t1,24(sp)
8000016c:	00712e23          	sw	t2,28(sp)
80000170:	02812023          	sw	s0,32(sp)
80000174:	02912223          	sw	s1,36(sp)
80000178:	02a12423          	sw	a0,40(sp)
8000017c:	02b12623          	sw	a1,44(sp)
80000180:	02c12823          	sw	a2,48(sp)
80000184:	02d12a23          	sw	a3,52(sp)
80000188:	02e12c23          	sw	a4,56(sp)
8000018c:	02f12e23          	sw	a5,60(sp)
80000190:	05012023          	sw	a6,64(sp)
80000194:	05112223          	sw	a7,68(sp)
80000198:	05212423          	sw	s2,72(sp)
8000019c:	05312623          	sw	s3,76(sp)
800001a0:	05412823          	sw	s4,80(sp)
800001a4:	05512a23          	sw	s5,84(sp)
800001a8:	05612c23          	sw	s6,88(sp)
800001ac:	05712e23          	sw	s7,92(sp)
800001b0:	07812023          	sw	s8,96(sp)
800001b4:	07912223          	sw	s9,100(sp)
800001b8:	07a12423          	sw	s10,104(sp)
800001bc:	07b12623          	sw	s11,108(sp)
800001c0:	07c12823          	sw	t3,112(sp)
800001c4:	07d12a23          	sw	t4,116(sp)
800001c8:	07e12c23          	sw	t5,120(sp)
800001cc:	07f12e23          	sw	t6,124(sp)
800001d0:	34002273          	csrr	tp,mscratch
800001d4:	34102373          	csrr	t1,mepc
800001d8:	00612023          	sw	t1,0(sp)
D:\temp\K1921VG015\proj\Run_leds__2\Debug/../platform/source/startup_k1921vg015.S:252
    ## save mstatus priv stack
    csrr s0, mstatus
800001dc:	30002473          	csrr	s0,mstatus
D:\temp\K1921VG015\proj\Run_leds__2\Debug/../platform/source/startup_k1921vg015.S:254
    ## load trap handler args
    csrr a0, mcause
800001e0:	34202573          	csrr	a0,mcause
D:\temp\K1921VG015\proj\Run_leds__2\Debug/../platform/source/startup_k1921vg015.S:255
    csrr a1, mepc
800001e4:	341025f3          	csrr	a1,mepc
D:\temp\K1921VG015\proj\Run_leds__2\Debug/../platform/source/startup_k1921vg015.S:256
    mv   a2, sp
800001e8:	00010613          	mv	a2,sp
D:\temp\K1921VG015\proj\Run_leds__2\Debug/../platform/source/startup_k1921vg015.S:259

    ## setup gp
    load_addrword_abs gp, __global_pointer$
800001ec:	400001b7          	lui	gp,0x40000
800001f0:	78018193          	addi	gp,gp,1920 # 40000780 <__global_pointer$>
D:\temp\K1921VG015\proj\Run_leds__2\Debug/../platform/source/startup_k1921vg015.S:261
    ## call trap handler
    load_addrword t0, trap_handler
800001f4:	800002b7          	lui	t0,0x80000
800001f8:	5c428293          	addi	t0,t0,1476 # 800005c4 <trap_handler>
D:\temp\K1921VG015\proj\Run_leds__2\Debug/../platform/source/startup_k1921vg015.S:262
    jalr t0
800001fc:	000280e7          	jalr	t0
D:\temp\K1921VG015\proj\Run_leds__2\Debug/../platform/source/startup_k1921vg015.S:265

    ## restore mstatus priv stack
    csrw mstatus, s0
80000200:	30041073          	csrw	mstatus,s0
D:\temp\K1921VG015\proj\Run_leds__2\Debug/../platform/source/startup_k1921vg015.S:267
    ## restore context
    context_restore
80000204:	00012303          	lw	t1,0(sp)
80000208:	34131073          	csrw	mepc,t1
8000020c:	00c12183          	lw	gp,12(sp)
80000210:	01012203          	lw	tp,16(sp)
80000214:	01412283          	lw	t0,20(sp)
80000218:	01812303          	lw	t1,24(sp)
8000021c:	01c12383          	lw	t2,28(sp)
80000220:	02012403          	lw	s0,32(sp)
80000224:	02412483          	lw	s1,36(sp)
80000228:	02812503          	lw	a0,40(sp)
8000022c:	02c12583          	lw	a1,44(sp)
80000230:	03012603          	lw	a2,48(sp)
80000234:	03412683          	lw	a3,52(sp)
80000238:	03812703          	lw	a4,56(sp)
8000023c:	03c12783          	lw	a5,60(sp)
80000240:	04012803          	lw	a6,64(sp)
80000244:	04412883          	lw	a7,68(sp)
80000248:	04812903          	lw	s2,72(sp)
8000024c:	04c12983          	lw	s3,76(sp)
80000250:	05012a03          	lw	s4,80(sp)
80000254:	05412a83          	lw	s5,84(sp)
80000258:	05812b03          	lw	s6,88(sp)
8000025c:	05c12b83          	lw	s7,92(sp)
80000260:	06012c03          	lw	s8,96(sp)
80000264:	06412c83          	lw	s9,100(sp)
80000268:	06812d03          	lw	s10,104(sp)
8000026c:	06c12d83          	lw	s11,108(sp)
80000270:	07012e03          	lw	t3,112(sp)
80000274:	07412e83          	lw	t4,116(sp)
80000278:	07812f03          	lw	t5,120(sp)
8000027c:	07c12f83          	lw	t6,124(sp)
80000280:	00412083          	lw	ra,4(sp)
80000284:	00812103          	lw	sp,8(sp)
D:\temp\K1921VG015\proj\Run_leds__2\Debug/../platform/source/startup_k1921vg015.S:268
    mret
80000288:	30200073          	mret
	...

Disassembly of section .text:

800002c4 <PLIC_ClaimIrq>:
PLIC_ClaimIrq():
D:\temp\K1921VG015\proj\Run_leds__2\Debug/../platform/source/plic.c:125
 * Get current isr number
 */

uint32_t PLIC_ClaimIrq (uint8_t target)
{
	if(target == Plic_Mach_Target) {
800002c4:	e509                	bnez	a0,800002ce <PLIC_ClaimIrq+0xa>
D:\temp\K1921VG015\proj\Run_leds__2\Debug/../platform/source/plic.c:126
		return (uint32_t)(PLIC->MICC);
800002c6:	0c2007b7          	lui	a5,0xc200
800002ca:	43c8                	lw	a0,4(a5)
800002cc:	8082                	ret
D:\temp\K1921VG015\proj\Run_leds__2\Debug/../platform/source/plic.c:128
	} else {
		return (uint32_t)(PLIC->UICC);
800002ce:	0c2017b7          	lui	a5,0xc201
800002d2:	43c8                	lw	a0,4(a5)
D:\temp\K1921VG015\proj\Run_leds__2\Debug/../platform/source/plic.c:130
	}
}
800002d4:	8082                	ret

800002d6 <PLIC_ClaimComplete>:
PLIC_ClaimComplete():
D:\temp\K1921VG015\proj\Run_leds__2\Debug/../platform/source/plic.c:138
 * Set current isr as completed
 */

void PLIC_ClaimComplete (uint8_t target, uint32_t isrnum)
{
	if(target == Plic_Mach_Target) {
800002d6:	e509                	bnez	a0,800002e0 <PLIC_ClaimComplete+0xa>
D:\temp\K1921VG015\proj\Run_leds__2\Debug/../platform/source/plic.c:139
		PLIC->MICC = isrnum;
800002d8:	0c2007b7          	lui	a5,0xc200
800002dc:	c3cc                	sw	a1,4(a5)
800002de:	8082                	ret
D:\temp\K1921VG015\proj\Run_leds__2\Debug/../platform/source/plic.c:141
	} else {
		PLIC->UICC = isrnum;
800002e0:	0c2017b7          	lui	a5,0xc201
800002e4:	c3cc                	sw	a1,4(a5)
D:\temp\K1921VG015\proj\Run_leds__2\Debug/../platform/source/plic.c:143
	}
}
800002e6:	8082                	ret

800002e8 <PLIC_SetThreshold>:
PLIC_SetThreshold():
D:\temp\K1921VG015\proj\Run_leds__2\Debug/../platform/source/plic.c:150
/*
 * Set threshold for irqs
 */

void PLIC_SetThreshold(uint8_t target, uint32_t value) {
	if(target == Plic_Mach_Target) {
800002e8:	e509                	bnez	a0,800002f2 <PLIC_SetThreshold+0xa>
D:\temp\K1921VG015\proj\Run_leds__2\Debug/../platform/source/plic.c:151
		PLIC->MTHR = value;
800002ea:	0c2007b7          	lui	a5,0xc200
800002ee:	c38c                	sw	a1,0(a5)
800002f0:	8082                	ret
D:\temp\K1921VG015\proj\Run_leds__2\Debug/../platform/source/plic.c:153
	} else {
		PLIC->UTHR = value;
800002f2:	0c2017b7          	lui	a5,0xc201
800002f6:	c38c                	sw	a1,0(a5)
D:\temp\K1921VG015\proj\Run_leds__2\Debug/../platform/source/plic.c:155
	}
}
800002f8:	8082                	ret

800002fa <PLIC_MachHandler>:
PLIC_MachHandler():
D:\temp\K1921VG015\proj\Run_leds__2\Debug/../platform/source/plic.c:158


void PLIC_MachHandler(void) {
800002fa:	1141                	addi	sp,sp,-16
800002fc:	c606                	sw	ra,12(sp)
D:\temp\K1921VG015\proj\Run_leds__2\Debug/../platform/source/plic.c:161

	// handle interrupt
	uint32_t isr_num = PLIC_ClaimIrq(Plic_Mach_Target);
800002fe:	4501                	li	a0,0
80000300:	37d1                	jal	800002c4 <PLIC_ClaimIrq>
D:\temp\K1921VG015\proj\Run_leds__2\Debug/../platform/source/plic.c:163
	// check if handler exist
	if(mach_plic_handler[isr_num] != NULL_IRQ) {
80000302:	400007b7          	lui	a5,0x40000
80000306:	00251713          	slli	a4,a0,0x2
8000030a:	00078793          	mv	a5,a5
8000030e:	97ba                	add	a5,a5,a4
80000310:	439c                	lw	a5,0(a5)
80000312:	cb81                	beqz	a5,80000322 <PLIC_MachHandler+0x28>
80000314:	c422                	sw	s0,8(sp)
80000316:	842a                	mv	s0,a0
D:\temp\K1921VG015\proj\Run_leds__2\Debug/../platform/source/plic.c:165
		// call isr handler
		mach_plic_handler[isr_num]();
80000318:	9782                	jalr	a5
D:\temp\K1921VG015\proj\Run_leds__2\Debug/../platform/source/plic.c:167
		// set isr completes
		PLIC_ClaimComplete(Plic_Mach_Target, isr_num);
8000031a:	85a2                	mv	a1,s0
8000031c:	4501                	li	a0,0
8000031e:	3f65                	jal	800002d6 <PLIC_ClaimComplete>
80000320:	4422                	lw	s0,8(sp)
D:\temp\K1921VG015\proj\Run_leds__2\Debug/../platform/source/plic.c:169
	}
}
80000322:	40b2                	lw	ra,12(sp)
80000324:	0141                	addi	sp,sp,16
80000326:	8082                	ret

80000328 <SystemCoreClockUpdate>:
SystemCoreClockUpdate():
D:\temp\K1921VG015\proj\Run_leds__2\Debug/../platform/source/system_k1921vg015.c:37
//-- Functions -----------------------------------------------------------------
void SystemCoreClockUpdate(void)
{
    uint32_t current_sysclk;
    uint32_t pll_refclk, pll_refdiv, pll_frac, pll_fbdiv, pll_pd0a, pll_pd0b, pll_pd1a, pll_pd1b = 1;
    current_sysclk = RCU->CLKSTAT_bit.SRC;
80000328:	3000e737          	lui	a4,0x3000e
8000032c:	5f48                	lw	a0,60(a4)
8000032e:	890d                	andi	a0,a0,3
D:\temp\K1921VG015\proj\Run_leds__2\Debug/../platform/source/system_k1921vg015.c:39
  	pll_refclk = HSECLK_VAL;
   	pll_fbdiv = RCU->PLLSYSCFG2_bit.FBDIV;
80000330:	4f2c                	lw	a1,88(a4)
80000332:	6785                	lui	a5,0x1
80000334:	17fd                	addi	a5,a5,-1 # fff <system_k1921vg015.c.08e00f8f+0x7d0>
80000336:	8dfd                	and	a1,a1,a5
80000338:	05c2                	slli	a1,a1,0x10
8000033a:	81c1                	srli	a1,a1,0x10
D:\temp\K1921VG015\proj\Run_leds__2\Debug/../platform/source/system_k1921vg015.c:40
   	pll_refdiv = RCU->PLLSYSCFG0_bit.REFDIV;
8000033c:	05072883          	lw	a7,80(a4) # 3000e050 <main.c.fafdc48c+0x3000ac9f>
80000340:	0078d893          	srli	a7,a7,0x7
80000344:	03f8f893          	andi	a7,a7,63
D:\temp\K1921VG015\proj\Run_leds__2\Debug/../platform/source/system_k1921vg015.c:41
   	pll_pd0a = RCU->PLLSYSCFG0_bit.PD0A;
80000348:	4b3c                	lw	a5,80(a4)
8000034a:	83b5                	srli	a5,a5,0xd
8000034c:	8b9d                	andi	a5,a5,7
D:\temp\K1921VG015\proj\Run_leds__2\Debug/../platform/source/system_k1921vg015.c:42
   	pll_pd0b = RCU->PLLSYSCFG0_bit.PD0B;
8000034e:	4b30                	lw	a2,80(a4)
80000350:	8241                	srli	a2,a2,0x10
80000352:	03f67613          	andi	a2,a2,63
D:\temp\K1921VG015\proj\Run_leds__2\Debug/../platform/source/system_k1921vg015.c:43
   	pll_pd1a = RCU->PLLSYSCFG0_bit.PD1A;
80000356:	4b34                	lw	a3,80(a4)
80000358:	82d9                	srli	a3,a3,0x16
8000035a:	8a9d                	andi	a3,a3,7
D:\temp\K1921VG015\proj\Run_leds__2\Debug/../platform/source/system_k1921vg015.c:44
   	pll_pd1b = RCU->PLLSYSCFG0_bit.PD1B;
8000035c:	05072803          	lw	a6,80(a4)
80000360:	01985813          	srli	a6,a6,0x19
80000364:	03f87813          	andi	a6,a6,63
D:\temp\K1921VG015\proj\Run_leds__2\Debug/../platform/source/system_k1921vg015.c:45
   	if (RCU->PLLSYSCFG0_bit.DSMEN) pll_frac = RCU->PLLSYSCFG1_bit.FRAC;
80000368:	4b38                	lw	a4,80(a4)
8000036a:	8311                	srli	a4,a4,0x4
8000036c:	8b05                	andi	a4,a4,1
8000036e:	c735                	beqz	a4,800003da <SystemCoreClockUpdate+0xb2>
D:\temp\K1921VG015\proj\Run_leds__2\Debug/../platform/source/system_k1921vg015.c:45 (discriminator 1)
80000370:	3000e737          	lui	a4,0x3000e
80000374:	4b78                	lw	a4,84(a4)
80000376:	01000337          	lui	t1,0x1000
8000037a:	137d                	addi	t1,t1,-1 # ffffff <main.c.fafdc48c+0xffcc4e>
8000037c:	00677733          	and	a4,a4,t1
D:\temp\K1921VG015\proj\Run_leds__2\Debug/../platform/source/system_k1921vg015.c:48
   	else pll_frac = 0;

   	SystemPll0Clock = (pll_refclk * (pll_fbdiv+pll_frac/(1 << 24))) / (pll_refdiv * (1+pll_pd0a) * (1+pll_pd0b));
80000380:	8361                	srli	a4,a4,0x18
80000382:	972e                	add	a4,a4,a1
80000384:	00f425b7          	lui	a1,0xf42
80000388:	40058593          	addi	a1,a1,1024 # f42400 <main.c.fafdc48c+0xf3f04f>
8000038c:	02b70733          	mul	a4,a4,a1
80000390:	0785                	addi	a5,a5,1
80000392:	031787b3          	mul	a5,a5,a7
80000396:	0605                	addi	a2,a2,1
80000398:	02c787b3          	mul	a5,a5,a2
8000039c:	02f757b3          	divu	a5,a4,a5
800003a0:	90f1a623          	sw	a5,-1780(gp) # 4000008c <SystemPll0Clock>
D:\temp\K1921VG015\proj\Run_leds__2\Debug/../platform/source/system_k1921vg015.c:49
   	SystemPll1Clock = (pll_refclk * (pll_fbdiv+pll_frac/(1 << 24))) / (pll_refdiv * (1+pll_pd1a) * (1+pll_pd1b));
800003a4:	0685                	addi	a3,a3,1
800003a6:	031686b3          	mul	a3,a3,a7
800003aa:	00180613          	addi	a2,a6,1
800003ae:	02c686b3          	mul	a3,a3,a2
800003b2:	02d75733          	divu	a4,a4,a3
800003b6:	90e1a423          	sw	a4,-1784(gp) # 40000088 <SystemPll1Clock>
D:\temp\K1921VG015\proj\Run_leds__2\Debug/../platform/source/system_k1921vg015.c:50
    switch (current_sysclk) {
800003ba:	4709                	li	a4,2
800003bc:	04e50163          	beq	a0,a4,800003fe <SystemCoreClockUpdate+0xd6>
800003c0:	02a76063          	bltu	a4,a0,800003e0 <SystemCoreClockUpdate+0xb8>
800003c4:	c515                	beqz	a0,800003f0 <SystemCoreClockUpdate+0xc8>
800003c6:	4785                	li	a5,1
800003c8:	00f51b63          	bne	a0,a5,800003de <SystemCoreClockUpdate+0xb6>
D:\temp\K1921VG015\proj\Run_leds__2\Debug/../platform/source/system_k1921vg015.c:55
    case RCU_CLKSTAT_SRC_HSICLK:
        SystemCoreClock = HSICLK_VAL;
        break;
    case RCU_CLKSTAT_SRC_HSECLK:
        SystemCoreClock = HSECLK_VAL;
800003cc:	00f427b7          	lui	a5,0xf42
800003d0:	40078793          	addi	a5,a5,1024 # f42400 <main.c.fafdc48c+0xf3f04f>
800003d4:	90f1a223          	sw	a5,-1788(gp) # 40000084 <SystemCoreClock>
D:\temp\K1921VG015\proj\Run_leds__2\Debug/../platform/source/system_k1921vg015.c:56
        break;
800003d8:	8082                	ret
D:\temp\K1921VG015\proj\Run_leds__2\Debug/../platform/source/system_k1921vg015.c:46
   	else pll_frac = 0;
800003da:	4701                	li	a4,0
800003dc:	b755                	j	80000380 <SystemCoreClockUpdate+0x58>
800003de:	8082                	ret
D:\temp\K1921VG015\proj\Run_leds__2\Debug/../platform/source/system_k1921vg015.c:50
    switch (current_sysclk) {
800003e0:	478d                	li	a5,3
800003e2:	00f51663          	bne	a0,a5,800003ee <SystemCoreClockUpdate+0xc6>
D:\temp\K1921VG015\proj\Run_leds__2\Debug/../platform/source/system_k1921vg015.c:61
    case RCU_CLKSTAT_SRC_SYSPLL0CLK:
    	SystemCoreClock = SystemPll0Clock;
    	break;
    case RCU_CLKSTAT_SRC_LSICLK:
    	SystemCoreClock = LSICLK_VAL;
800003e6:	6721                	lui	a4,0x8
800003e8:	90e1a223          	sw	a4,-1788(gp) # 40000084 <SystemCoreClock>
D:\temp\K1921VG015\proj\Run_leds__2\Debug/../platform/source/system_k1921vg015.c:65
        break;
    }

}
800003ec:	8082                	ret
800003ee:	8082                	ret
D:\temp\K1921VG015\proj\Run_leds__2\Debug/../platform/source/system_k1921vg015.c:52
        SystemCoreClock = HSICLK_VAL;
800003f0:	000f47b7          	lui	a5,0xf4
800003f4:	24078793          	addi	a5,a5,576 # f4240 <main.c.fafdc48c+0xf0e8f>
800003f8:	90f1a223          	sw	a5,-1788(gp) # 40000084 <SystemCoreClock>
D:\temp\K1921VG015\proj\Run_leds__2\Debug/../platform/source/system_k1921vg015.c:53
        break;
800003fc:	8082                	ret
D:\temp\K1921VG015\proj\Run_leds__2\Debug/../platform/source/system_k1921vg015.c:58
    	SystemCoreClock = SystemPll0Clock;
800003fe:	90f1a223          	sw	a5,-1788(gp) # 40000084 <SystemCoreClock>
D:\temp\K1921VG015\proj\Run_leds__2\Debug/../platform/source/system_k1921vg015.c:59
    	break;
80000402:	8082                	ret

80000404 <ClkInit>:
ClkInit():
D:\temp\K1921VG015\proj\Run_leds__2\Debug/../platform/source/system_k1921vg015.c:75
    uint32_t sysclk_source;

    //clockout control
    #ifndef CKO_NONE
        //C7 clockout
        RCU->CGCFGAHB_bit.GPIOCEN = 1;
80000404:	3000e7b7          	lui	a5,0x3000e
80000408:	0007d703          	lhu	a4,0(a5) # 3000e000 <main.c.fafdc48c+0x3000ac4f>
8000040c:	40076713          	ori	a4,a4,1024
80000410:	00e79023          	sh	a4,0(a5)
D:\temp\K1921VG015\proj\Run_leds__2\Debug/../platform/source/system_k1921vg015.c:76
        RCU->RSTDISAHB_bit.GPIOCEN = 1;
80000414:	0107d703          	lhu	a4,16(a5)
80000418:	40076713          	ori	a4,a4,1024
8000041c:	00e79823          	sh	a4,16(a5)
D:\temp\K1921VG015\proj\Run_leds__2\Debug/../platform/source/system_k1921vg015.c:77
        GPIOC->ALTFUNCNUM_bit.PIN7 = 3;
80000420:	28002737          	lui	a4,0x28002
80000424:	5f54                	lw	a3,60(a4)
80000426:	6631                	lui	a2,0xc
80000428:	8ed1                	or	a3,a3,a2
8000042a:	df54                	sw	a3,60(a4)
D:\temp\K1921VG015\proj\Run_leds__2\Debug/../platform/source/system_k1921vg015.c:78
        GPIOC->ALTFUNCSET_bit.PIN7 = 1;
8000042c:	03475683          	lhu	a3,52(a4) # 28002034 <main.c.fafdc48c+0x27ffec83>
80000430:	0806e693          	ori	a3,a3,128
80000434:	02d71a23          	sh	a3,52(a4)
D:\temp\K1921VG015\proj\Run_leds__2\Debug/../platform/source/system_k1921vg015.c:92
        RCU->CLKOUTCFG = (RCU_CLKOUTCFG_CLKSEL_HSE << RCU_CLKOUTCFG_CLKSEL_Pos) |
				  	  	  (1 << RCU_CLKOUTCFG_DIVN_Pos) |
						  (0 << RCU_CLKOUTCFG_DIVEN_Pos) |
						  RCU_CLKOUTCFG_RSTDIS_Msk | RCU_CLKOUTCFG_CLKEN_Msk; //CKO = HSECLK
    #elif defined CKO_PLL0
        RCU->CLKOUTCFG = (RCU_CLKOUTCFG_CLKSEL_PLL0 << RCU_CLKOUTCFG_CLKSEL_Pos) |
80000438:	6745                	lui	a4,0x11
8000043a:	12170713          	addi	a4,a4,289 # 11121 <main.c.fafdc48c+0xdd70>
8000043e:	0ae7ae23          	sw	a4,188(a5)
D:\temp\K1921VG015\proj\Run_leds__2\Debug/../platform/source/system_k1921vg015.c:108
//select system clock
#ifdef SYSCLK_PLL
	//PLLCLK = REFCLK * (FBDIV+FRAC/2^24) / (REFDIV*(1+PD0A)*(1+PD0B))
	
	//select HSE as source system clock while config PLL
	RCU->SYSCLKCFG = (RCU_SYSCLKCFG_SRC_HSECLK << RCU_SYSCLKCFG_SRC_Pos);
80000442:	4705                	li	a4,1
80000444:	db98                	sw	a4,48(a5)
D:\temp\K1921VG015\proj\Run_leds__2\Debug/../platform/source/system_k1921vg015.c:110
    // Wait switching done
    timeout_counter = 0;
80000446:	4681                	li	a3,0
D:\temp\K1921VG015\proj\Run_leds__2\Debug/../platform/source/system_k1921vg015.c:111
    while ((RCU->CLKSTAT_bit.SRC != RCU->SYSCLKCFG_bit.SRC) && (timeout_counter < 100)){ //SYSCLK_SWITCH_TIMEOUT))
80000448:	a011                	j	8000044c <ClkInit+0x48>
D:\temp\K1921VG015\proj\Run_leds__2\Debug/../platform/source/system_k1921vg015.c:112
        timeout_counter++;
8000044a:	0685                	addi	a3,a3,1
D:\temp\K1921VG015\proj\Run_leds__2\Debug/../platform/source/system_k1921vg015.c:111
    while ((RCU->CLKSTAT_bit.SRC != RCU->SYSCLKCFG_bit.SRC) && (timeout_counter < 100)){ //SYSCLK_SWITCH_TIMEOUT))
8000044c:	3000e7b7          	lui	a5,0x3000e
80000450:	5fd8                	lw	a4,60(a5)
80000452:	8b0d                	andi	a4,a4,3
80000454:	5b9c                	lw	a5,48(a5)
80000456:	8b8d                	andi	a5,a5,3
80000458:	00f70663          	beq	a4,a5,80000464 <ClkInit+0x60>
D:\temp\K1921VG015\proj\Run_leds__2\Debug/../platform/source/system_k1921vg015.c:111 (discriminator 1)
8000045c:	06300793          	li	a5,99
80000460:	fed7f5e3          	bgeu	a5,a3,8000044a <ClkInit+0x46>
D:\temp\K1921VG015\proj\Run_leds__2\Debug/../platform/source/system_k1921vg015.c:147
	RCU->PLLSYSCFG1 = 0;          //FRAC = 0					 
	RCU->PLLSYSCFG2 = 100;         //FBDIV
#elif (HSECLK_VAL == 16000000)
// Fout0 = 50 000 000 Hz
// Fout1 = 12 500 000 Hz
	RCU->PLLSYSCFG0 =( 7 << RCU_PLLSYSCFG0_PD1B_Pos) |  //PD1B
80000464:	3000e7b7          	lui	a5,0x3000e
80000468:	0fc16737          	lui	a4,0xfc16
8000046c:	10770713          	addi	a4,a4,263 # fc16107 <main.c.fafdc48c+0xfc12d56>
80000470:	cbb8                	sw	a4,80(a5)
D:\temp\K1921VG015\proj\Run_leds__2\Debug/../platform/source/system_k1921vg015.c:157
					 ( 0 << RCU_PLLSYSCFG0_FOUTEN_Pos)    |  //fouten
					 ( 0 << RCU_PLLSYSCFG0_DSMEN_Pos)     |  //dsmen
					 ( 0 << RCU_PLLSYSCFG0_DACEN_Pos)     |  //dacen
					 ( 3 << RCU_PLLSYSCFG0_BYP_Pos)       |  //bypass
					 ( 1 << RCU_PLLSYSCFG0_PLLEN_Pos);       //en
	RCU->PLLSYSCFG1 = 0;          //FRAC = 0					 
80000472:	0407aa23          	sw	zero,84(a5) # 3000e054 <main.c.fafdc48c+0x3000aca3>
D:\temp\K1921VG015\proj\Run_leds__2\Debug/../platform/source/system_k1921vg015.c:158
	RCU->PLLSYSCFG2 = 50;         //FBDIV
80000476:	03200713          	li	a4,50
8000047a:	cfb8                	sw	a4,88(a5)
D:\temp\K1921VG015\proj\Run_leds__2\Debug/../platform/source/system_k1921vg015.c:192
	RCU->PLLSYSCFG1 = 0;          //FRAC = 0					 
	RCU->PLLSYSCFG2 = 65;         //FBDIV
#else
#error "Please define HSECLK_VAL with correct values!"
#endif
	RCU->PLLSYSCFG0_bit.FOUTEN = 1; 	// Fout0 Enable
8000047c:	4bb8                	lw	a4,80(a5)
8000047e:	f9f77713          	andi	a4,a4,-97
80000482:	02076713          	ori	a4,a4,32
80000486:	cbb8                	sw	a4,80(a5)
D:\temp\K1921VG015\proj\Run_leds__2\Debug/../platform/source/system_k1921vg015.c:193
	timeout_counter = 1000;
80000488:	3e800793          	li	a5,1000
D:\temp\K1921VG015\proj\Run_leds__2\Debug/../platform/source/system_k1921vg015.c:194
	while(timeout_counter) timeout_counter--;
8000048c:	a011                	j	80000490 <ClkInit+0x8c>
D:\temp\K1921VG015\proj\Run_leds__2\Debug/../platform/source/system_k1921vg015.c:194 (discriminator 2)
8000048e:	17fd                	addi	a5,a5,-1
D:\temp\K1921VG015\proj\Run_leds__2\Debug/../platform/source/system_k1921vg015.c:194 (discriminator 1)
80000490:	fffd                	bnez	a5,8000048e <ClkInit+0x8a>
D:\temp\K1921VG015\proj\Run_leds__2\Debug/../platform/source/system_k1921vg015.c:195 (discriminator 1)
	while((RCU->PLLSYSSTAT_bit.LOCK) != 1)
80000492:	3000e737          	lui	a4,0x3000e
80000496:	5338                	lw	a4,96(a4)
80000498:	8b05                	andi	a4,a4,1
8000049a:	df65                	beqz	a4,80000492 <ClkInit+0x8e>
D:\temp\K1921VG015\proj\Run_leds__2\Debug/../platform/source/system_k1921vg015.c:197
	{}; 								// wait lock signal
	RCU->PLLSYSCFG0_bit.BYP = 2; 		// Bypass for Fout1
8000049c:	3000e637          	lui	a2,0x3000e
800004a0:	4a38                	lw	a4,80(a2)
800004a2:	9b65                	andi	a4,a4,-7
800004a4:	00476713          	ori	a4,a4,4
800004a8:	ca38                	sw	a4,80(a2)
D:\temp\K1921VG015\proj\Run_leds__2\Debug/../platform/source/system_k1921vg015.c:201
	//select PLL as source system clock
	sysclk_source = RCU_SYSCLKCFG_SRC_SYSPLL0CLK;
    // FLASH control settings
    FLASH->CTRL_bit.LAT = 3;
800004aa:	3000d6b7          	lui	a3,0x3000d
800004ae:	46f8                	lw	a4,76(a3)
800004b0:	fff105b7          	lui	a1,0xfff10
800004b4:	15fd                	addi	a1,a1,-1 # fff0ffff <_tdata_start+0x7ff0f863>
800004b6:	8f6d                	and	a4,a4,a1
800004b8:	000305b7          	lui	a1,0x30
800004bc:	8f4d                	or	a4,a4,a1
800004be:	c6f8                	sw	a4,76(a3)
D:\temp\K1921VG015\proj\Run_leds__2\Debug/../platform/source/system_k1921vg015.c:202
    FLASH->CTRL_bit.CEN = 1;
800004c0:	46f8                	lw	a4,76(a3)
800004c2:	00276713          	ori	a4,a4,2
800004c6:	c6f8                	sw	a4,76(a3)
D:\temp\K1921VG015\proj\Run_leds__2\Debug/../platform/source/system_k1921vg015.c:214
#else
#error "Please define SYSCLK source (SYSCLK_PLL | SYSCLK_HSE | SYSCLK_HSI | SYSCLK_LSI)!"
#endif

    //switch sysclk
    RCU->SYSCLKCFG = (sysclk_source << RCU_SYSCLKCFG_SRC_Pos);
800004c8:	4709                	li	a4,2
800004ca:	da18                	sw	a4,48(a2)
D:\temp\K1921VG015\proj\Run_leds__2\Debug/../platform/source/system_k1921vg015.c:217
    // Wait switching done
    timeout_counter = 0;
    while ((RCU->CLKSTAT_bit.SRC != RCU->SYSCLKCFG_bit.SRC) && (timeout_counter < 100)) //SYSCLK_SWITCH_TIMEOUT))
800004cc:	3000e737          	lui	a4,0x3000e
800004d0:	5f54                	lw	a3,60(a4)
800004d2:	8a8d                	andi	a3,a3,3
800004d4:	5b18                	lw	a4,48(a4)
800004d6:	8b0d                	andi	a4,a4,3
800004d8:	00e68863          	beq	a3,a4,800004e8 <ClkInit+0xe4>
D:\temp\K1921VG015\proj\Run_leds__2\Debug/../platform/source/system_k1921vg015.c:217 (discriminator 1)
800004dc:	06300713          	li	a4,99
800004e0:	00f76463          	bltu	a4,a5,800004e8 <ClkInit+0xe4>
D:\temp\K1921VG015\proj\Run_leds__2\Debug/../platform/source/system_k1921vg015.c:218
        timeout_counter++;
800004e4:	0785                	addi	a5,a5,1
800004e6:	b7dd                	j	800004cc <ClkInit+0xc8>
D:\temp\K1921VG015\proj\Run_leds__2\Debug/../platform/source/system_k1921vg015.c:223
/*    if (timeout_counter == SYSCLK_SWITCH_TIMEOUT) //SYSCLK failed to switch
        while (1) {
        };*/

}
800004e8:	8082                	ret

800004ea <InterruptEnable>:
InterruptEnable():
D:\temp\K1921VG015\proj\Run_leds__2\Debug/../platform/source/system_k1921vg015.c:226

void InterruptEnable()
{
800004ea:	1141                	addi	sp,sp,-16
800004ec:	c606                	sw	ra,12(sp)
D:\temp\K1921VG015\proj\Run_leds__2\Debug/../platform/source/system_k1921vg015.c:228
	//allow all interrupts in machine mode
	PLIC_SetThreshold (Plic_Mach_Target, 0); //allow all interrupts in machine mode
800004ee:	4581                	li	a1,0
800004f0:	4501                	li	a0,0
800004f2:	3bdd                	jal	800002e8 <PLIC_SetThreshold>
D:\temp\K1921VG015\proj\Run_leds__2\Debug/../platform/source/system_k1921vg015.c:230
    // disable timer interrupt
    clear_csr(mie, MIE_MTIMER);
800004f4:	08000793          	li	a5,128
800004f8:	3047b7f3          	csrrc	a5,mie,a5
D:\temp\K1921VG015\proj\Run_leds__2\Debug/../platform/source/system_k1921vg015.c:232
    // enable machine external interrupt
    set_csr(mie, MIE_MEXTERNAL);
800004fc:	6785                	lui	a5,0x1
800004fe:	80078793          	addi	a5,a5,-2048 # 800 <STACK_SIZE>
80000502:	3047a7f3          	csrrs	a5,mie,a5
D:\temp\K1921VG015\proj\Run_leds__2\Debug/../platform/source/system_k1921vg015.c:234
    // enable global interrupts
    set_csr(mstatus, MSTATUS_MIE);
80000506:	300467f3          	csrrsi	a5,mstatus,8
D:\temp\K1921VG015\proj\Run_leds__2\Debug/../platform/source/system_k1921vg015.c:235
}
8000050a:	40b2                	lw	ra,12(sp)
8000050c:	0141                	addi	sp,sp,16
8000050e:	8082                	ret

80000510 <SystemInit>:
SystemInit():
D:\temp\K1921VG015\proj\Run_leds__2\Debug/../platform/source/system_k1921vg015.c:248
    // disable global interrupts
    clear_csr(mstatus, MSTATUS_MIE);
}

void SystemInit(void)
{
80000510:	1141                	addi	sp,sp,-16
80000512:	c606                	sw	ra,12(sp)
D:\temp\K1921VG015\proj\Run_leds__2\Debug/../platform/source/system_k1921vg015.c:256
//	clear_csr(mie, MIE_MTIMER);
	// enable machine external interrupt
//	set_csr(mie, MIE_MEXTERNAL);
	// enable global interrupts
//	set_csr(mstatus, MSTATUS_MIE);
	ClkInit();
80000514:	3dc5                	jal	80000404 <ClkInit>
D:\temp\K1921VG015\proj\Run_leds__2\Debug/../platform/source/system_k1921vg015.c:257
}
80000516:	40b2                	lw	ra,12(sp)
80000518:	0141                	addi	sp,sp,16
8000051a:	8082                	ret

8000051c <UART1_init>:
UART1_init():
D:\temp\K1921VG015\proj\Run_leds__2\Debug/../main.c:95
    uint32_t baud_icoef = HSECLK_VAL / (16 * UART1_BAUD);
    uint32_t baud_fcoef = ((HSECLK_VAL / (16.0f * RETARGET_UART_BAUD) - baud_icoef) * 64 + 0.5f);


    // Настраиваем GPIO
    RCU->CGCFGAHB_bit.GPIOAEN = 1;  // включает такирование AHB
8000051c:	3000e7b7          	lui	a5,0x3000e
80000520:	0007d703          	lhu	a4,0(a5) # 3000e000 <main.c.fafdc48c+0x3000ac4f>
80000524:	10076713          	ori	a4,a4,256
80000528:	00e79023          	sh	a4,0(a5)
D:\temp\K1921VG015\proj\Run_leds__2\Debug/../main.c:96
    RCU->RSTDISAHB_bit.GPIOAEN = 1; // снимает сброс
8000052c:	0107d703          	lhu	a4,16(a5)
80000530:	10076713          	ori	a4,a4,256
80000534:	00e79823          	sh	a4,16(a5)
D:\temp\K1921VG015\proj\Run_leds__2\Debug/../main.c:97
    RCU->CGCFGAPB_bit.UART1EN = 1;  // тактирование uart1
80000538:	4798                	lw	a4,8(a5)
8000053a:	08076713          	ori	a4,a4,128
8000053e:	c798                	sw	a4,8(a5)
D:\temp\K1921VG015\proj\Run_leds__2\Debug/../main.c:98
    RCU->RSTDISAPB_bit.UART1EN = 1; // снимает сброс с uart1
80000540:	4f98                	lw	a4,24(a5)
80000542:	08076713          	ori	a4,a4,128
80000546:	cf98                	sw	a4,24(a5)
D:\temp\K1921VG015\proj\Run_leds__2\Debug/../main.c:100

    GPIOA->ALTFUNCNUM_bit.PIN2 = 1;
80000548:	28000737          	lui	a4,0x28000
8000054c:	5f54                	lw	a3,60(a4)
8000054e:	fcf6f693          	andi	a3,a3,-49
80000552:	0106e693          	ori	a3,a3,16
80000556:	df54                	sw	a3,60(a4)
D:\temp\K1921VG015\proj\Run_leds__2\Debug/../main.c:101
    GPIOA->ALTFUNCNUM_bit.PIN3 = 1;
80000558:	5f54                	lw	a3,60(a4)
8000055a:	f3f6f693          	andi	a3,a3,-193
8000055e:	0406e693          	ori	a3,a3,64
80000562:	df54                	sw	a3,60(a4)
D:\temp\K1921VG015\proj\Run_leds__2\Debug/../main.c:104

    // ALTFUNCSET – активирует альтернативные функции для PA2 и PA3
    GPIOA->ALTFUNCSET = GPIO_ALTFUNCSET_PIN2_Msk | GPIO_ALTFUNCSET_PIN3_Msk;
80000564:	46b1                	li	a3,12
80000566:	db54                	sw	a3,52(a4)
D:\temp\K1921VG015\proj\Run_leds__2\Debug/../main.c:110

    // Настраиваем UART1
    // UARTCLKCFG - Регистры настройки тактирования UART
    // CLKSEL - выбирает источник тактирования UART1
    // HSE внешний генератор
    RCU->UARTCLKCFG[1].UARTCLKCFG_bit.CLKSEL = RCU_UARTCLKCFG_CLKSEL_HSE;
80000568:	5bf8                	lw	a4,116(a5)
8000056a:	fffd06b7          	lui	a3,0xfffd0
8000056e:	16fd                	addi	a3,a3,-1 # fffcffff <_tdata_start+0x7ffcf863>
80000570:	8f75                	and	a4,a4,a3
80000572:	66c1                	lui	a3,0x10
80000574:	8f55                	or	a4,a4,a3
80000576:	dbf8                	sw	a4,116(a5)
D:\temp\K1921VG015\proj\Run_leds__2\Debug/../main.c:113

    // DIVEN - отключает дополнительный делитель частоты
    RCU->UARTCLKCFG[1].UARTCLKCFG_bit.DIVEN = 0;
80000578:	5bf8                	lw	a4,116(a5)
8000057a:	fff006b7          	lui	a3,0xfff00
8000057e:	16fd                	addi	a3,a3,-1 # ffefffff <_tdata_start+0x7feff863>
80000580:	8f75                	and	a4,a4,a3
80000582:	dbf8                	sw	a4,116(a5)
D:\temp\K1921VG015\proj\Run_leds__2\Debug/../main.c:115
    // RSTDIS - снимает сброс
    RCU->UARTCLKCFG[1].UARTCLKCFG_bit.RSTDIS = 1;
80000584:	5bf8                	lw	a4,116(a5)
80000586:	10076713          	ori	a4,a4,256
8000058a:	dbf8                	sw	a4,116(a5)
D:\temp\K1921VG015\proj\Run_leds__2\Debug/../main.c:117
    // включает тактирование
    RCU->UARTCLKCFG[1].UARTCLKCFG_bit.CLKEN = 1;
8000058c:	5bf8                	lw	a4,116(a5)
8000058e:	00176713          	ori	a4,a4,1
80000592:	dbf8                	sw	a4,116(a5)
D:\temp\K1921VG015\proj\Run_leds__2\Debug/../main.c:120

    // Fractional Baud Rate Divisor
    UART1->IBRD = baud_icoef; // записывасет дробную часть
80000594:	300077b7          	lui	a5,0x30007
80000598:	4721                	li	a4,8
8000059a:	d3d8                	sw	a4,36(a5)
D:\temp\K1921VG015\proj\Run_leds__2\Debug/../main.c:123

    // Line Control Register High
    UART1->FBRD = baud_fcoef;
8000059c:	02c00713          	li	a4,44
800005a0:	d798                	sw	a4,40(a5)
D:\temp\K1921VG015\proj\Run_leds__2\Debug/../main.c:128

    // Line Control Register High
    // UART_LCRH_FEN_Msk включает FIFO (буфер для данных)
    // 3 << UART_LCRH_WLEN_Pos – устанавливает 8 бит данных
    UART1->LCRH = UART_LCRH_FEN_Msk | (3 << UART_LCRH_WLEN_Pos);
800005a2:	07000713          	li	a4,112
800005a6:	d7d8                	sw	a4,44(a5)
D:\temp\K1921VG015\proj\Run_leds__2\Debug/../main.c:131

    //Interrupt FIFO Level Select
    UART1->IFLS = 0;
800005a8:	0207aa23          	sw	zero,52(a5) # 30007034 <main.c.fafdc48c+0x30003c83>
D:\temp\K1921VG015\proj\Run_leds__2\Debug/../main.c:139
     Control Register
     UART_CR_TXE_Msk разрешает передачу (TX)
     UART_CR_RXE_Msk разрешает приём (RX)
     UART_CR_UARTEN_Msk включает UART
     */
    UART1->CR = UART_CR_TXE_Msk | UART_CR_RXE_Msk | UART_CR_UARTEN_Msk;
800005ac:	30100713          	li	a4,769
800005b0:	db98                	sw	a4,48(a5)
D:\temp\K1921VG015\proj\Run_leds__2\Debug/../main.c:140
}
800005b2:	8082                	ret

800005b4 <periph_init>:
periph_init():
D:\temp\K1921VG015\proj\Run_leds__2\Debug/../main.c:145


//-- Peripheral init functions -------------------------------------------------
void periph_init()
{
800005b4:	1141                	addi	sp,sp,-16
800005b6:	c606                	sw	ra,12(sp)
D:\temp\K1921VG015\proj\Run_leds__2\Debug/../main.c:147
	//BSP_led_init();
	SystemInit();
800005b8:	3fa1                	jal	80000510 <SystemInit>
D:\temp\K1921VG015\proj\Run_leds__2\Debug/../main.c:148
	SystemCoreClockUpdate();
800005ba:	33bd                	jal	80000328 <SystemCoreClockUpdate>
D:\temp\K1921VG015\proj\Run_leds__2\Debug/../main.c:151
	//BSP_led_init();
	//retarget_init();
	UART1_init();
800005bc:	3785                	jal	8000051c <UART1_init>
D:\temp\K1921VG015\proj\Run_leds__2\Debug/../main.c:155
	// printf("K1921VG015 SYSCLK = %d MHz\n", (int)(SystemCoreClock / 1E6));
	// printf("  UID[0] = 0x%X  UID[1] = 0x%X  UID[2] = 0x%X  UID[3] = 0x%X\n", (unsigned int)PMUSYS->UID[0], (unsigned int)PMUSYS->UID[1], (unsigned int)PMUSYS->UID[2], (unsigned int)PMUSYS->UID[3]);
	// printf("  Start RunLeds\n");
}
800005be:	40b2                	lw	ra,12(sp)
800005c0:	0141                	addi	sp,sp,16
800005c2:	8082                	ret

800005c4 <trap_handler>:
trap_handler():
D:\temp\K1921VG015\proj\Run_leds__2\Debug/../platform/source/plic.c:186
#define MCAUSE_EXCEPT_STAMOACCSFAULT    0x7
#define MCAUSE_EXCEPT_ECALLFRM_M_MODE   0xB

void trap_handler (void)
{
	uint32_t mcause_val = read_csr(mcause);
800005c4:	342027f3          	csrr	a5,mcause
D:\temp\K1921VG015\proj\Run_leds__2\Debug/../platform/source/plic.c:188

	if((mcause_val & MCAUSE_INTERRUPT_FLAG) == 0) {
800005c8:	0007c363          	bltz	a5,800005ce <trap_handler+0xa>
D:\temp\K1921VG015\proj\Run_leds__2\Debug/../platform/source/plic.c:216
			default: // MCAUSE_EXCEPT UNKNOWN

				break;
		}

		while(1) {}; //TRAP
800005cc:	a001                	j	800005cc <trap_handler+0x8>
D:\temp\K1921VG015\proj\Run_leds__2\Debug/../platform/source/plic.c:185
{
800005ce:	1141                	addi	sp,sp,-16
800005d0:	c606                	sw	ra,12(sp)
D:\temp\K1921VG015\proj\Run_leds__2\Debug/../platform/source/plic.c:219
	} else {
		// handle interrupt
		PLIC_MachHandler();
800005d2:	3325                	jal	800002fa <PLIC_MachHandler>
D:\temp\K1921VG015\proj\Run_leds__2\Debug/../platform/source/plic.c:221
	}
}
800005d4:	40b2                	lw	ra,12(sp)
800005d6:	0141                	addi	sp,sp,16
800005d8:	8082                	ret

800005da <main>:
main():
D:\temp\K1921VG015\proj\Run_leds__2\Debug/../main.c:162
//--- USER FUNCTIONS ----------------------------------------------------------------------
volatile uint32_t led_shift;

//-- Main ----------------------------------------------------------------------
int main(void)
{
800005da:	1141                	addi	sp,sp,-16
800005dc:	c606                	sw	ra,12(sp)
D:\temp\K1921VG015\proj\Run_leds__2\Debug/../main.c:164
	uint32_t	i;
	periph_init();
800005de:	3fd9                	jal	800005b4 <periph_init>
D:\temp\K1921VG015\proj\Run_leds__2\Debug/../main.c:167
	// TMR32_init(SystemCoreClock>>10);  // если << 1, медленно
	//TMR32_init(500000); // 50 000 000 частота ядра, 500 000 10мс
	InterruptEnable();
800005e0:	3729                	jal	800004ea <InterruptEnable>
D:\temp\K1921VG015\proj\Run_leds__2\Debug/../main.c:168
	led_shift = LED0_MSK;
800005e2:	10000713          	li	a4,256
800005e6:	90e1a023          	sw	a4,-1792(gp) # 40000080 <led_shift>
800005ea:	a039                	j	800005f8 <main+0x1e>
D:\temp\K1921VG015\proj\Run_leds__2\Debug/../main.c:172 (discriminator 3)
	while (1)
	{
		UART1->DR = 0x053;
	    for(i=0;i<100000; ++i)
800005ec:	0705                	addi	a4,a4,1 # 28000001 <main.c.fafdc48c+0x27ffcc50>
D:\temp\K1921VG015\proj\Run_leds__2\Debug/../main.c:172 (discriminator 1)
800005ee:	67e1                	lui	a5,0x18
800005f0:	69f78793          	addi	a5,a5,1695 # 1869f <main.c.fafdc48c+0x152ee>
800005f4:	fee7fce3          	bgeu	a5,a4,800005ec <main+0x12>
D:\temp\K1921VG015\proj\Run_leds__2\Debug/../main.c:171
		UART1->DR = 0x053;
800005f8:	300077b7          	lui	a5,0x30007
800005fc:	05300713          	li	a4,83
80000600:	c398                	sw	a4,0(a5)
D:\temp\K1921VG015\proj\Run_leds__2\Debug/../main.c:172
	    for(i=0;i<100000; ++i)
80000602:	4701                	li	a4,0
80000604:	b7ed                	j	800005ee <main+0x14>

80000606 <memset>:
memset():
80000606:	433d                	li	t1,15
80000608:	872a                	mv	a4,a0
8000060a:	02c37363          	bgeu	t1,a2,80000630 <memset+0x2a>
8000060e:	00f77793          	andi	a5,a4,15
80000612:	efbd                	bnez	a5,80000690 <memset+0x8a>
80000614:	e5ad                	bnez	a1,8000067e <memset+0x78>
80000616:	ff067693          	andi	a3,a2,-16
8000061a:	8a3d                	andi	a2,a2,15
8000061c:	96ba                	add	a3,a3,a4
8000061e:	c30c                	sw	a1,0(a4)
80000620:	c34c                	sw	a1,4(a4)
80000622:	c70c                	sw	a1,8(a4)
80000624:	c74c                	sw	a1,12(a4)
80000626:	0741                	addi	a4,a4,16
80000628:	fed76be3          	bltu	a4,a3,8000061e <memset+0x18>
8000062c:	e211                	bnez	a2,80000630 <memset+0x2a>
8000062e:	8082                	ret
80000630:	40c306b3          	sub	a3,t1,a2
80000634:	068a                	slli	a3,a3,0x2
80000636:	00000297          	auipc	t0,0x0
8000063a:	9696                	add	a3,a3,t0
8000063c:	00a68067          	jr	10(a3)
80000640:	00b70723          	sb	a1,14(a4)
80000644:	00b706a3          	sb	a1,13(a4)
80000648:	00b70623          	sb	a1,12(a4)
8000064c:	00b705a3          	sb	a1,11(a4)
80000650:	00b70523          	sb	a1,10(a4)
80000654:	00b704a3          	sb	a1,9(a4)
80000658:	00b70423          	sb	a1,8(a4)
8000065c:	00b703a3          	sb	a1,7(a4)
80000660:	00b70323          	sb	a1,6(a4)
80000664:	00b702a3          	sb	a1,5(a4)
80000668:	00b70223          	sb	a1,4(a4)
8000066c:	00b701a3          	sb	a1,3(a4)
80000670:	00b70123          	sb	a1,2(a4)
80000674:	00b700a3          	sb	a1,1(a4)
80000678:	00b70023          	sb	a1,0(a4)
8000067c:	8082                	ret
8000067e:	0ff5f593          	zext.b	a1,a1
80000682:	00859693          	slli	a3,a1,0x8
80000686:	8dd5                	or	a1,a1,a3
80000688:	01059693          	slli	a3,a1,0x10
8000068c:	8dd5                	or	a1,a1,a3
8000068e:	b761                	j	80000616 <memset+0x10>
80000690:	00279693          	slli	a3,a5,0x2
80000694:	00000297          	auipc	t0,0x0
80000698:	9696                	add	a3,a3,t0
8000069a:	8286                	mv	t0,ra
8000069c:	fa8680e7          	jalr	-88(a3)
800006a0:	8096                	mv	ra,t0
800006a2:	17c1                	addi	a5,a5,-16 # 30006ff0 <main.c.fafdc48c+0x30003c3f>
800006a4:	8f1d                	sub	a4,a4,a5
800006a6:	963e                	add	a2,a2,a5
800006a8:	f8c374e3          	bgeu	t1,a2,80000630 <memset+0x2a>
800006ac:	b7a5                	j	80000614 <memset+0xe>

800006ae <memcpy>:
memcpy():
800006ae:	00a5c7b3          	xor	a5,a1,a0
800006b2:	8b8d                	andi	a5,a5,3
800006b4:	00c508b3          	add	a7,a0,a2
800006b8:	e7b1                	bnez	a5,80000704 <memcpy+0x56>
800006ba:	478d                	li	a5,3
800006bc:	04c7f463          	bgeu	a5,a2,80000704 <memcpy+0x56>
800006c0:	00357793          	andi	a5,a0,3
800006c4:	872a                	mv	a4,a0
800006c6:	e7dd                	bnez	a5,80000774 <memcpy+0xc6>
800006c8:	ffc8f613          	andi	a2,a7,-4
800006cc:	40e606b3          	sub	a3,a2,a4
800006d0:	02000793          	li	a5,32
800006d4:	04d7c463          	blt	a5,a3,8000071c <memcpy+0x6e>
800006d8:	86ae                	mv	a3,a1
800006da:	87ba                	mv	a5,a4
800006dc:	02c77163          	bgeu	a4,a2,800006fe <memcpy+0x50>
800006e0:	0006a803          	lw	a6,0(a3)
800006e4:	0791                	addi	a5,a5,4
800006e6:	0691                	addi	a3,a3,4
800006e8:	ff07ae23          	sw	a6,-4(a5)
800006ec:	fec7eae3          	bltu	a5,a2,800006e0 <memcpy+0x32>
800006f0:	167d                	addi	a2,a2,-1 # 3000dfff <main.c.fafdc48c+0x3000ac4e>
800006f2:	8e19                	sub	a2,a2,a4
800006f4:	9a71                	andi	a2,a2,-4
800006f6:	0591                	addi	a1,a1,4 # 30004 <main.c.fafdc48c+0x2cc53>
800006f8:	0711                	addi	a4,a4,4
800006fa:	95b2                	add	a1,a1,a2
800006fc:	9732                	add	a4,a4,a2
800006fe:	01176663          	bltu	a4,a7,8000070a <memcpy+0x5c>
80000702:	8082                	ret
80000704:	872a                	mv	a4,a0
80000706:	ff157ee3          	bgeu	a0,a7,80000702 <memcpy+0x54>
8000070a:	0005c783          	lbu	a5,0(a1)
8000070e:	0705                	addi	a4,a4,1
80000710:	0585                	addi	a1,a1,1
80000712:	fef70fa3          	sb	a5,-1(a4)
80000716:	fee89ae3          	bne	a7,a4,8000070a <memcpy+0x5c>
8000071a:	8082                	ret
8000071c:	5194                	lw	a3,32(a1)
8000071e:	0005a383          	lw	t2,0(a1)
80000722:	0045a283          	lw	t0,4(a1)
80000726:	0085af83          	lw	t6,8(a1)
8000072a:	00c5af03          	lw	t5,12(a1)
8000072e:	0105ae83          	lw	t4,16(a1)
80000732:	0145ae03          	lw	t3,20(a1)
80000736:	0185a303          	lw	t1,24(a1)
8000073a:	01c5a803          	lw	a6,28(a1)
8000073e:	02470713          	addi	a4,a4,36
80000742:	fed72e23          	sw	a3,-4(a4)
80000746:	fc772e23          	sw	t2,-36(a4)
8000074a:	40e606b3          	sub	a3,a2,a4
8000074e:	fe572023          	sw	t0,-32(a4)
80000752:	fff72223          	sw	t6,-28(a4)
80000756:	ffe72423          	sw	t5,-24(a4)
8000075a:	ffd72623          	sw	t4,-20(a4)
8000075e:	ffc72823          	sw	t3,-16(a4)
80000762:	fe672a23          	sw	t1,-12(a4)
80000766:	ff072c23          	sw	a6,-8(a4)
8000076a:	02458593          	addi	a1,a1,36
8000076e:	fad7c7e3          	blt	a5,a3,8000071c <memcpy+0x6e>
80000772:	b79d                	j	800006d8 <memcpy+0x2a>
80000774:	0005c683          	lbu	a3,0(a1)
80000778:	0705                	addi	a4,a4,1
8000077a:	00377793          	andi	a5,a4,3
8000077e:	fed70fa3          	sb	a3,-1(a4)
80000782:	0585                	addi	a1,a1,1
80000784:	d3b1                	beqz	a5,800006c8 <memcpy+0x1a>
80000786:	0005c683          	lbu	a3,0(a1)
8000078a:	0705                	addi	a4,a4,1
8000078c:	00377793          	andi	a5,a4,3
80000790:	fed70fa3          	sb	a3,-1(a4)
80000794:	0585                	addi	a1,a1,1
80000796:	fff9                	bnez	a5,80000774 <memcpy+0xc6>
80000798:	bf05                	j	800006c8 <memcpy+0x1a>
